

Microchip MPLAB XC8 Assembler V2.46 build 20240104201356 
                                                                                               Wed Apr 17 19:16:54 2024

Microchip MPLAB XC8 C Compiler v2.46 (Free license) build 20240104201356 Og1 
     1                           	processor	16F877A
     2                           	pagewidth 120
     3                           	opt	flic
     4                           	psect	strings,global,class=STRING,delta=2,noexec
     5                           	psect	cinit,global,class=CODE,merge=1,delta=2
     6                           	psect	cstackCOMMON,global,class=COMMON,space=1,delta=1,noexec
     7                           	psect	cstackBANK0,global,class=BANK0,space=1,delta=1,noexec
     8                           	psect	maintext,global,class=CODE,split=1,delta=2
     9                           	psect	text1,local,class=CODE,merge=1,delta=2
    10                           	psect	text2,local,class=CODE,merge=1,delta=2
    11                           	psect	text3,local,class=CODE,merge=1,delta=2
    12                           	psect	text4,local,class=CODE,merge=1,delta=2
    13                           	psect	text5,local,class=CODE,merge=1,delta=2
    14                           	psect	text6,local,class=CODE,merge=1,delta=2
    15                           	psect	text7,local,class=CODE,merge=1,delta=2
    16                           	psect	text8,local,class=CODE,merge=1,delta=2
    17                           	psect	text9,local,class=CODE,merge=1,delta=2
    18                           	psect	text10,local,class=CODE,merge=1,delta=2
    19                           	psect	text11,local,class=CODE,merge=1,delta=2
    20                           	dabs	1,0x7E,2
    21     0000                     
    22                           ; Generated 12/10/2023 GMT
    23                           ; 
    24                           ; Copyright © 2023, Microchip Technology Inc. and its subsidiaries ("Microchip")
    25                           ; All rights reserved.
    26                           ; 
    27                           ; This software is developed by Microchip Technology Inc. and its subsidiaries ("Microch
      +                          ip").
    28                           ; 
    29                           ; Redistribution and use in source and binary forms, with or without modification, are
    30                           ; permitted provided that the following conditions are met:
    31                           ; 
    32                           ;     1. Redistributions of source code must retain the above copyright notice, this lis
      +                          t of
    33                           ;        conditions and the following disclaimer.
    34                           ; 
    35                           ;     2. Redistributions in binary form must reproduce the above copyright notice, this 
      +                          list
    36                           ;        of conditions and the following disclaimer in the documentation and/or other
    37                           ;        materials provided with the distribution. Publication is not required when
    38                           ;        this file is used in an embedded application.
    39                           ; 
    40                           ;     3. Microchip's name may not be used to endorse or promote products derived from th
      +                          is
    41                           ;        software without specific prior written permission.
    42                           ; 
    43                           ; THIS SOFTWARE IS PROVIDED BY MICROCHIP "AS IS" AND ANY EXPRESS OR IMPLIED WARRANTIES,
    44                           ; INCLUDING, BUT NOT LIMITED TO, THE IMPLIED WARRANTIES OF MERCHANTABILITY AND FITNESS F
      +                          OR
    45                           ; PURPOSE ARE DISCLAIMED.  IN NO EVENT SHALL MICROCHIP BE LIABLE FOR ANY DIRECT, INDIREC
      +                          T,
    46                           ; INCIDENTAL, SPECIAL, EXEMPLARY, OR CONSEQUENTIAL DAMAGES (INCLUDING BUT NOT LIMITED TO
    47                           ; PROCUREMENT OF SUBSTITUTE GOODS OR SERVICES; LOSS OF USE, DATA OR PROFITS; OR BUSINESS
    48                           ; INTERRUPTION) HOWSOEVER CAUSED AND ON ANY THEORY OF LIABILITY, WHETHER IN CONTRACT, ST
      +                          RICT
    49                           ; LIABILITY, OR TORT (INCLUDING NEGLIGENCE OR OTHERWISE) ARISING IN ANY WAY OUT OF THE U
      +                          SE OF
    50                           ; THIS SOFTWARE, EVEN IF ADVISED OF THE POSSIBILITY OF SUCH DAMAGE.
    51                           ; 
    52                           ; 
    53                           ; Code-generator required, PIC16F877A Definitions
    54                           ; 
    55                           ; SFR Addresses
    56     0000                     	;# 
    57     0001                     	;# 
    58     0002                     	;# 
    59     0003                     	;# 
    60     0004                     	;# 
    61     0005                     	;# 
    62     0006                     	;# 
    63     0007                     	;# 
    64     0008                     	;# 
    65     0009                     	;# 
    66     000A                     	;# 
    67     000B                     	;# 
    68     000C                     	;# 
    69     000D                     	;# 
    70     000E                     	;# 
    71     000E                     	;# 
    72     000F                     	;# 
    73     0010                     	;# 
    74     0011                     	;# 
    75     0012                     	;# 
    76     0013                     	;# 
    77     0014                     	;# 
    78     0015                     	;# 
    79     0015                     	;# 
    80     0016                     	;# 
    81     0017                     	;# 
    82     0018                     	;# 
    83     0019                     	;# 
    84     001A                     	;# 
    85     001B                     	;# 
    86     001B                     	;# 
    87     001C                     	;# 
    88     001D                     	;# 
    89     001E                     	;# 
    90     001F                     	;# 
    91     0081                     	;# 
    92     0085                     	;# 
    93     0086                     	;# 
    94     0087                     	;# 
    95     0088                     	;# 
    96     0089                     	;# 
    97     008C                     	;# 
    98     008D                     	;# 
    99     008E                     	;# 
   100     0091                     	;# 
   101     0092                     	;# 
   102     0093                     	;# 
   103     0094                     	;# 
   104     0098                     	;# 
   105     0099                     	;# 
   106     009C                     	;# 
   107     009D                     	;# 
   108     009E                     	;# 
   109     009F                     	;# 
   110     010C                     	;# 
   111     010D                     	;# 
   112     010E                     	;# 
   113     010F                     	;# 
   114     018C                     	;# 
   115     018D                     	;# 
   116     0000                     	;# 
   117     0001                     	;# 
   118     0002                     	;# 
   119     0003                     	;# 
   120     0004                     	;# 
   121     0005                     	;# 
   122     0006                     	;# 
   123     0007                     	;# 
   124     0008                     	;# 
   125     0009                     	;# 
   126     000A                     	;# 
   127     000B                     	;# 
   128     000C                     	;# 
   129     000D                     	;# 
   130     000E                     	;# 
   131     000E                     	;# 
   132     000F                     	;# 
   133     0010                     	;# 
   134     0011                     	;# 
   135     0012                     	;# 
   136     0013                     	;# 
   137     0014                     	;# 
   138     0015                     	;# 
   139     0015                     	;# 
   140     0016                     	;# 
   141     0017                     	;# 
   142     0018                     	;# 
   143     0019                     	;# 
   144     001A                     	;# 
   145     001B                     	;# 
   146     001B                     	;# 
   147     001C                     	;# 
   148     001D                     	;# 
   149     001E                     	;# 
   150     001F                     	;# 
   151     0081                     	;# 
   152     0085                     	;# 
   153     0086                     	;# 
   154     0087                     	;# 
   155     0088                     	;# 
   156     0089                     	;# 
   157     008C                     	;# 
   158     008D                     	;# 
   159     008E                     	;# 
   160     0091                     	;# 
   161     0092                     	;# 
   162     0093                     	;# 
   163     0094                     	;# 
   164     0098                     	;# 
   165     0099                     	;# 
   166     009C                     	;# 
   167     009D                     	;# 
   168     009E                     	;# 
   169     009F                     	;# 
   170     010C                     	;# 
   171     010D                     	;# 
   172     010E                     	;# 
   173     010F                     	;# 
   174     018C                     	;# 
   175     018D                     	;# 
   176     0000                     	;# 
   177     0001                     	;# 
   178     0002                     	;# 
   179     0003                     	;# 
   180     0004                     	;# 
   181     0005                     	;# 
   182     0006                     	;# 
   183     0007                     	;# 
   184     0008                     	;# 
   185     0009                     	;# 
   186     000A                     	;# 
   187     000B                     	;# 
   188     000C                     	;# 
   189     000D                     	;# 
   190     000E                     	;# 
   191     000E                     	;# 
   192     000F                     	;# 
   193     0010                     	;# 
   194     0011                     	;# 
   195     0012                     	;# 
   196     0013                     	;# 
   197     0014                     	;# 
   198     0015                     	;# 
   199     0015                     	;# 
   200     0016                     	;# 
   201     0017                     	;# 
   202     0018                     	;# 
   203     0019                     	;# 
   204     001A                     	;# 
   205     001B                     	;# 
   206     001B                     	;# 
   207     001C                     	;# 
   208     001D                     	;# 
   209     001E                     	;# 
   210     001F                     	;# 
   211     0081                     	;# 
   212     0085                     	;# 
   213     0086                     	;# 
   214     0087                     	;# 
   215     0088                     	;# 
   216     0089                     	;# 
   217     008C                     	;# 
   218     008D                     	;# 
   219     008E                     	;# 
   220     0091                     	;# 
   221     0092                     	;# 
   222     0093                     	;# 
   223     0094                     	;# 
   224     0098                     	;# 
   225     0099                     	;# 
   226     009C                     	;# 
   227     009D                     	;# 
   228     009E                     	;# 
   229     009F                     	;# 
   230     010C                     	;# 
   231     010D                     	;# 
   232     010E                     	;# 
   233     010F                     	;# 
   234     018C                     	;# 
   235     018D                     	;# 
   236     0000                     	;# 
   237     0001                     	;# 
   238     0002                     	;# 
   239     0003                     	;# 
   240     0004                     	;# 
   241     0005                     	;# 
   242     0006                     	;# 
   243     0007                     	;# 
   244     0008                     	;# 
   245     0009                     	;# 
   246     000A                     	;# 
   247     000B                     	;# 
   248     000C                     	;# 
   249     000D                     	;# 
   250     000E                     	;# 
   251     000E                     	;# 
   252     000F                     	;# 
   253     0010                     	;# 
   254     0011                     	;# 
   255     0012                     	;# 
   256     0013                     	;# 
   257     0014                     	;# 
   258     0015                     	;# 
   259     0015                     	;# 
   260     0016                     	;# 
   261     0017                     	;# 
   262     0018                     	;# 
   263     0019                     	;# 
   264     001A                     	;# 
   265     001B                     	;# 
   266     001B                     	;# 
   267     001C                     	;# 
   268     001D                     	;# 
   269     001E                     	;# 
   270     001F                     	;# 
   271     0081                     	;# 
   272     0085                     	;# 
   273     0086                     	;# 
   274     0087                     	;# 
   275     0088                     	;# 
   276     0089                     	;# 
   277     008C                     	;# 
   278     008D                     	;# 
   279     008E                     	;# 
   280     0091                     	;# 
   281     0092                     	;# 
   282     0093                     	;# 
   283     0094                     	;# 
   284     0098                     	;# 
   285     0099                     	;# 
   286     009C                     	;# 
   287     009D                     	;# 
   288     009E                     	;# 
   289     009F                     	;# 
   290     010C                     	;# 
   291     010D                     	;# 
   292     010E                     	;# 
   293     010F                     	;# 
   294     018C                     	;# 
   295     018D                     	;# 
   296     0006                     _PORTB	set	6
   297     0041                     _RD1	set	65
   298     0040                     _RD0	set	64
   299     0045                     _RD5	set	69
   300     0044                     _RD4	set	68
   301     0043                     _RD3	set	67
   302     0042                     _RD2	set	66
   303     0081                     _OPTION_REG	set	129
   304     0086                     _TRISB	set	134
   305     0445                     _TRISD5	set	1093
   306     0444                     _TRISD4	set	1092
   307     0443                     _TRISD3	set	1091
   308     0442                     _TRISD2	set	1090
   309     0441                     _TRISD1	set	1089
   310     0440                     _TRISD0	set	1088
   311                           
   312                           	psect	strings
   313     0003                     __pstrings:
   314     0003                     stringtab:
   315     0003                     __stringtab:
   316     0003                     stringcode:	
   317                           ;	String table - string pointers are 1 byte each
   318                           
   319     0003                     stringdir:
   320     0003  3000               	movlw	high stringdir
   321     0004  008A               	movwf	10
   322     0005  0804               	movf	4,w
   323     0006  0A84               	incf	4,f
   324     0007  0782               	addwf	2,f
   325     0008                     __stringbase:
   326     0008  3400               	retlw	0
   327     0009                     __end_of__stringtab:
   328     0009                     STR_1:
   329     0009  3445               	retlw	69	;'E'
   330     000A  346E               	retlw	110	;'n'
   331     000B  3474               	retlw	116	;'t'
   332     000C  3465               	retlw	101	;'e'
   333     000D  3472               	retlw	114	;'r'
   334     000E  3420               	retlw	32	;' '
   335     000F  3474               	retlw	116	;'t'
   336     0010  3468               	retlw	104	;'h'
   337     0011  3465               	retlw	101	;'e'
   338     0012  3420               	retlw	32	;' '
   339     0013  3470               	retlw	112	;'p'
   340     0014  3461               	retlw	97	;'a'
   341     0015  3473               	retlw	115	;'s'
   342     0016  3473               	retlw	115	;'s'
   343     0017  3477               	retlw	119	;'w'
   344     0018  346F               	retlw	111	;'o'
   345     0019  3472               	retlw	114	;'r'
   346     001A  3464               	retlw	100	;'d'
   347     001B  3400               	retlw	0
   348     001C                     STR_3:
   349     001C  3457               	retlw	87	;'W'
   350     001D  3452               	retlw	82	;'R'
   351     001E  344F               	retlw	79	;'O'
   352     001F  344E               	retlw	78	;'N'
   353     0020  3447               	retlw	71	;'G'
   354     0021  3420               	retlw	32	;' '
   355     0022  3450               	retlw	80	;'P'
   356     0023  3441               	retlw	65	;'A'
   357     0024  3453               	retlw	83	;'S'
   358     0025  3453               	retlw	83	;'S'
   359     0026  3457               	retlw	87	;'W'
   360     0027  344F               	retlw	79	;'O'
   361     0028  3452               	retlw	82	;'R'
   362     0029  3444               	retlw	68	;'D'
   363     002A  3400               	retlw	0
   364     002B                     STR_2:
   365     002B  3457               	retlw	87	;'W'
   366     002C  3445               	retlw	69	;'E'
   367     002D  344C               	retlw	76	;'L'
   368     002E  3443               	retlw	67	;'C'
   369     002F  344F               	retlw	79	;'O'
   370     0030  344D               	retlw	77	;'M'
   371     0031  3445               	retlw	69	;'E'
   372     0032  3420               	retlw	32	;' '
   373     0033  3455               	retlw	85	;'U'
   374     0034  3453               	retlw	83	;'S'
   375     0035  3445               	retlw	69	;'E'
   376     0036  3452               	retlw	82	;'R'
   377     0037  3400               	retlw	0
   378     0038                     STR_5:
   379     0038  344D               	retlw	77	;'M'
   380     0039  346F               	retlw	111	;'o'
   381     003A  3468               	retlw	104	;'h'
   382     003B  3461               	retlw	97	;'a'
   383     003C  346D               	retlw	109	;'m'
   384     003D  3465               	retlw	101	;'e'
   385     003E  3464               	retlw	100	;'d'
   386     003F  3400               	retlw	0
   387     0040                     STR_4:
   388     0040  3441               	retlw	65	;'A'
   389     0041  3479               	retlw	121	;'y'
   390     0042  346D               	retlw	109	;'m'
   391     0043  3461               	retlw	97	;'a'
   392     0044  346E               	retlw	110	;'n'
   393     0045  3400               	retlw	0
   394                           
   395                           	psect	cinit
   396     07FC                     start_initialization:	
   397                           ; #config settings
   398                           
   399     07FC                     __initialization:
   400     07FC                     end_of_initialization:	
   401                           ;End of C runtime variable initialization code
   402                           
   403     07FC                     __end_of__initialization:
   404     07FC  0183               	clrf	3
   405     07FD  120A  118A  2F0A   	ljmp	_main	;jump to C main() function
   406                           
   407                           	psect	cstackCOMMON
   408     0070                     __pcstackCOMMON:
   409     0070                     ?_lcd_cmd:
   410     0070                     ?_keypad_get_key:	
   411                           ; 1 bytes @ 0x0
   412                           
   413     0070                     ??_keypad_get_key:	
   414                           ; 1 bytes @ 0x0
   415                           
   416     0070                     ?_lcd_chr_cp:	
   417                           ; 1 bytes @ 0x0
   418                           
   419     0070                     ?_lcd_init:	
   420                           ; 1 bytes @ 0x0
   421                           
   422     0070                     ?_keypad_init:	
   423                           ; 1 bytes @ 0x0
   424                           
   425     0070                     ??_keypad_init:	
   426                           ; 1 bytes @ 0x0
   427                           
   428     0070                     ?_Get_Password:	
   429                           ; 1 bytes @ 0x0
   430                           
   431     0070                     ?_main:	
   432                           ; 1 bytes @ 0x0
   433                           
   434     0070                     ?_SET_LCD_DATA_PINS:	
   435                           ; 1 bytes @ 0x0
   436                           
   437     0070                     ??_SET_LCD_DATA_PINS:	
   438                           ; 1 bytes @ 0x0
   439                           
   440     0070                     ?_LCD_SEND_4BIT_CMD:	
   441                           ; 1 bytes @ 0x0
   442                           
   443     0070                     ?_LCD_Write_Char:	
   444                           ; 1 bytes @ 0x0
   445                           
   446     0070                     SET_LCD_DATA_PINS@Data:	
   447                           ; 1 bytes @ 0x0
   448                           
   449                           
   450                           ; 1 bytes @ 0x0
   451     0070                     	ds	1
   452     0071                     ??_LCD_SEND_4BIT_CMD:
   453     0071                     ??_LCD_Write_Char:	
   454                           ; 1 bytes @ 0x1
   455                           
   456                           
   457                           ; 1 bytes @ 0x1
   458     0071                     	ds	2
   459     0073                     LCD_SEND_4BIT_CMD@CMD:
   460     0073                     LCD_Write_Char@Low4:	
   461                           ; 1 bytes @ 0x3
   462                           
   463                           
   464                           ; 1 bytes @ 0x3
   465     0073                     	ds	1
   466     0074                     ??_lcd_cmd:
   467     0074                     ?_lcd_set_cursor:	
   468                           ; 1 bytes @ 0x4
   469                           
   470     0074                     ??_lcd_init:	
   471                           ; 1 bytes @ 0x4
   472                           
   473     0074                     LCD_Write_Char@High4:	
   474                           ; 1 bytes @ 0x4
   475                           
   476     0074                     lcd_set_cursor@c:	
   477                           ; 1 bytes @ 0x4
   478                           
   479                           
   480                           ; 1 bytes @ 0x4
   481     0074                     	ds	1
   482     0075                     ??_lcd_set_cursor:
   483     0075                     LCD_Write_Char@Data:	
   484                           ; 1 bytes @ 0x5
   485                           
   486     0075                     lcd_cmd@command:	
   487                           ; 1 bytes @ 0x5
   488                           
   489                           
   490                           ; 1 bytes @ 0x5
   491     0075                     	ds	1
   492     0076                     ??_lcd_chr_cp:
   493     0076                     lcd_set_cursor@r:	
   494                           ; 1 bytes @ 0x6
   495                           
   496     0076                     lcd_chr_cp@chr:	
   497                           ; 1 bytes @ 0x6
   498                           
   499                           
   500                           ; 1 bytes @ 0x6
   501     0076                     	ds	1
   502     0077                     lcd_set_cursor@Low4:
   503                           
   504                           ; 1 bytes @ 0x7
   505     0077                     	ds	1
   506     0078                     lcd_set_cursor@High4:
   507                           
   508                           ; 1 bytes @ 0x8
   509     0078                     	ds	1
   510     0079                     lcd_set_cursor@Temp:
   511                           
   512                           ; 1 bytes @ 0x9
   513     0079                     	ds	1
   514     007A                     ?_lcd_out:
   515     007A                     lcd_out@col:	
   516                           ; 1 bytes @ 0xA
   517                           
   518                           
   519                           ; 1 bytes @ 0xA
   520     007A                     	ds	1
   521     007B                     lcd_out@str:
   522                           
   523                           ; 1 bytes @ 0xB
   524     007B                     	ds	1
   525     007C                     ??_lcd_out:
   526                           
   527                           	psect	cstackBANK0
   528     0020                     __pcstackBANK0:	
   529                           ; 1 bytes @ 0xC
   530                           
   531     0020                     lcd_out@row:
   532                           
   533                           ; 1 bytes @ 0x0
   534     0020                     	ds	1
   535     0021                     lcd_out@i:
   536                           
   537                           ; 2 bytes @ 0x1
   538     0021                     	ds	2
   539     0023                     ??_Get_Password:
   540                           
   541                           ; 1 bytes @ 0x3
   542     0023                     	ds	3
   543     0026                     Get_Password@state:
   544                           
   545                           ; 2 bytes @ 0x6
   546     0026                     	ds	2
   547     0028                     Get_Password@i:
   548                           
   549                           ; 2 bytes @ 0x8
   550     0028                     	ds	2
   551     002A                     Get_Password@pass:
   552                           
   553                           ; 1 bytes @ 0xA
   554     002A                     	ds	1
   555     002B                     ??_main:
   556                           
   557                           ; 1 bytes @ 0xB
   558     002B                     	ds	3
   559     002E                     main@flag:
   560                           
   561                           ; 1 bytes @ 0xE
   562     002E                     	ds	1
   563     002F                     main@i:
   564                           
   565                           ; 2 bytes @ 0xF
   566     002F                     	ds	2
   567                           
   568                           	psect	maintext
   569     070A                     __pmaintext:	
   570 ;;
   571 ;;Main: autosize = 0, tempsize = 3, incstack = 0, save=0
   572 ;;
   573 ;; *************** function _main *****************
   574 ;; Defined at:
   575 ;;		line 47 in file "main.c"
   576 ;; Parameters:    Size  Location     Type
   577 ;;		None
   578 ;; Auto vars:     Size  Location     Type
   579 ;;  i               2   15[BANK0 ] int 
   580 ;;  flag            1   14[BANK0 ] unsigned char 
   581 ;; Return value:  Size  Location     Type
   582 ;;                  1    wreg      void 
   583 ;; Registers used:
   584 ;;		wreg, fsr0l, fsr0h, status,2, status,0, btemp+1, pclath, cstack
   585 ;; Tracked objects:
   586 ;;		On entry : B00/0
   587 ;;		On exit  : 0/0
   588 ;;		Unchanged: 0/0
   589 ;; Data sizes:     COMMON   BANK0   BANK1   BANK3   BANK2
   590 ;;      Params:         0       0       0       0       0
   591 ;;      Locals:         0       3       0       0       0
   592 ;;      Temps:          0       3       0       0       0
   593 ;;      Totals:         0       6       0       0       0
   594 ;;Total ram usage:        6 bytes
   595 ;; Hardware stack levels required when called: 5
   596 ;; This function calls:
   597 ;;		_Get_Password
   598 ;;		_keypad_init
   599 ;;		_lcd_cmd
   600 ;;		_lcd_init
   601 ;;		_lcd_out
   602 ;; This function is called by:
   603 ;;		Startup code after reset
   604 ;; This function uses a non-reentrant model
   605 ;;
   606                           
   607     070A                     _main:	
   608                           ;psect for function _main
   609                           
   610     070A                     l1401:	
   611                           ;incstack = 0
   612                           ; Regs used in _main: [wreg-fsr0h+status,2+status,0+btemp+1+pclath+cstack]
   613                           
   614                           
   615                           ;main.c: 48:     lcd_init();
   616     070A  120A  118A  2561  120A  118A  	fcall	_lcd_init
   617                           
   618                           ;main.c: 49:     keypad_init();
   619     070F  120A  118A  2438  120A  118A  	fcall	_keypad_init
   620                           
   621                           ;main.c: 51:     lcd_cmd((0x01));
   622     0714  3001               	movlw	1
   623     0715  120A  118A  2446  120A  118A  	fcall	_lcd_cmd
   624                           
   625                           ;main.c: 52:     lcd_cmd((0x02));
   626     071A  3002               	movlw	2
   627     071B  120A  118A  2446  120A  118A  	fcall	_lcd_cmd
   628                           
   629                           ;main.c: 53:     lcd_cmd((0x0C));
   630     0720  300C               	movlw	12
   631     0721  120A  118A  2446  120A  118A  	fcall	_lcd_cmd
   632     0726                     l1403:
   633                           
   634                           ;main.c: 55:     lcd_out(1,1,"WELCOME USER");
   635     0726  01FA               	clrf	lcd_out@col
   636     0727  0AFA               	incf	lcd_out@col,f
   637     0728  3023               	movlw	(low ((STR_2-__stringbase)| (0+32768)))& (0+255)
   638     0729  00FB               	movwf	lcd_out@str
   639     072A  3001               	movlw	1
   640     072B  120A  118A  249A  120A  118A  	fcall	_lcd_out
   641     0730                     l1405:
   642                           
   643                           ;main.c: 56:     _delay((unsigned long)((2000)*((8000000)/4000.0)));
   644     0730  3015               	movlw	21
   645     0731  1283               	bcf	3,5	;RP0=0, select bank0
   646     0732  1303               	bcf	3,6	;RP1=0, select bank0
   647     0733  00AD               	movwf	??_main+2
   648     0734  304B               	movlw	75
   649     0735  00AC               	movwf	??_main+1
   650     0736  30BD               	movlw	189
   651     0737  00AB               	movwf	??_main
   652     0738                     u1057:
   653     0738  0BAB               	decfsz	??_main,f
   654     0739  2F38               	goto	u1057
   655     073A  0BAC               	decfsz	??_main+1,f
   656     073B  2F38               	goto	u1057
   657     073C  0BAD               	decfsz	??_main+2,f
   658     073D  2F38               	goto	u1057
   659     073E  2F3F               	nop2
   660     073F                     l1407:
   661     073F                     l1409:
   662                           
   663                           ;main.c: 61:     {;main.c: 62:         flag=Get_Password();
   664     073F  120A  118A  25CB  120A  118A  	fcall	_Get_Password
   665     0744  1283               	bcf	3,5	;RP0=0, select bank0
   666     0745  1303               	bcf	3,6	;RP1=0, select bank0
   667     0746  00AE               	movwf	main@flag
   668     0747                     l1411:
   669                           
   670                           ;main.c: 63:         if(flag==1)
   671     0747  032E               	decf	main@flag,w
   672     0748  1D03               	btfss	3,2
   673     0749  2F4B               	goto	u1011
   674     074A  2F4C               	goto	u1010
   675     074B                     u1011:
   676     074B  2F4D               	goto	l1415
   677     074C                     u1010:
   678     074C  2F78               	goto	l1421
   679     074D                     l1415:
   680                           
   681                           ;main.c: 67:         lcd_cmd((0x01));
   682     074D  3001               	movlw	1
   683     074E  120A  118A  2446  120A  118A  	fcall	_lcd_cmd
   684                           
   685                           ;main.c: 68:         lcd_cmd((0x02));
   686     0753  3002               	movlw	2
   687     0754  120A  118A  2446  120A  118A  	fcall	_lcd_cmd
   688                           
   689                           ;main.c: 69:         lcd_cmd((0x0C));
   690     0759  300C               	movlw	12
   691     075A  120A  118A  2446  120A  118A  	fcall	_lcd_cmd
   692     075F                     l1417:
   693                           
   694                           ;main.c: 70:         lcd_out(1,1,"WRONG PASSWORD");
   695     075F  01FA               	clrf	lcd_out@col
   696     0760  0AFA               	incf	lcd_out@col,f
   697     0761  3014               	movlw	(low ((STR_3-__stringbase)| (0+32768)))& (0+255)
   698     0762  00FB               	movwf	lcd_out@str
   699     0763  3001               	movlw	1
   700     0764  120A  118A  249A  120A  118A  	fcall	_lcd_out
   701     0769                     l1419:
   702                           
   703                           ;main.c: 71:         _delay((unsigned long)((1500)*((8000000)/4000.0)));
   704     0769  3010               	movlw	16
   705     076A  1283               	bcf	3,5	;RP0=0, select bank0
   706     076B  1303               	bcf	3,6	;RP1=0, select bank0
   707     076C  00AD               	movwf	??_main+2
   708     076D  3039               	movlw	57
   709     076E  00AC               	movwf	??_main+1
   710     076F  300D               	movlw	13
   711     0770  00AB               	movwf	??_main
   712     0771                     u1067:
   713     0771  0BAB               	decfsz	??_main,f
   714     0772  2F71               	goto	u1067
   715     0773  0BAC               	decfsz	??_main+1,f
   716     0774  2F71               	goto	u1067
   717     0775  0BAD               	decfsz	??_main+2,f
   718     0776  2F71               	goto	u1067
   719     0777  2F3F               	goto	l1409
   720     0778                     l1421:
   721                           
   722                           ;main.c: 75:     lcd_cmd((0x01));
   723     0778  3001               	movlw	1
   724     0779  120A  118A  2446  120A  118A  	fcall	_lcd_cmd
   725                           
   726                           ;main.c: 76:     lcd_cmd((0x02));
   727     077E  3002               	movlw	2
   728     077F  120A  118A  2446  120A  118A  	fcall	_lcd_cmd
   729                           
   730                           ;main.c: 77:     lcd_cmd((0x0C));
   731     0784  300C               	movlw	12
   732     0785  120A  118A  2446  120A  118A  	fcall	_lcd_cmd
   733     078A                     l1423:
   734                           
   735                           ;main.c: 78:     lcd_out(1,1,"Ayman");
   736     078A  01FA               	clrf	lcd_out@col
   737     078B  0AFA               	incf	lcd_out@col,f
   738     078C  3038               	movlw	(low ((STR_4-__stringbase)| (0+32768)))& (0+255)
   739     078D  00FB               	movwf	lcd_out@str
   740     078E  3001               	movlw	1
   741     078F  120A  118A  249A  120A  118A  	fcall	_lcd_out
   742     0794                     l1425:
   743                           
   744                           ;main.c: 79:     lcd_out(2,1,"Mohamed");
   745     0794  01FA               	clrf	lcd_out@col
   746     0795  0AFA               	incf	lcd_out@col,f
   747     0796  3030               	movlw	(low ((STR_5-__stringbase)| (0+32768)))& (0+255)
   748     0797  00FB               	movwf	lcd_out@str
   749     0798  3002               	movlw	2
   750     0799  120A  118A  249A  120A  118A  	fcall	_lcd_out
   751     079E                     l1427:
   752                           
   753                           ;main.c: 82:     {;main.c: 84:     for(i=0;i<8;i++)
   754     079E  1283               	bcf	3,5	;RP0=0, select bank0
   755     079F  1303               	bcf	3,6	;RP1=0, select bank0
   756     07A0  01AF               	clrf	main@i
   757     07A1  01B0               	clrf	main@i+1
   758     07A2                     l1433:
   759                           
   760                           ;main.c: 85:     {;main.c: 86:         lcd_cmd((0x1C));
   761     07A2  301C               	movlw	28
   762     07A3  120A  118A  2446  120A  118A  	fcall	_lcd_cmd
   763     07A8                     l1435:
   764                           
   765                           ;main.c: 87:         _delay((unsigned long)((300)*((8000000)/4000.0)));
   766     07A8  3004               	movlw	4
   767     07A9  1283               	bcf	3,5	;RP0=0, select bank0
   768     07AA  1303               	bcf	3,6	;RP1=0, select bank0
   769     07AB  00AD               	movwf	??_main+2
   770     07AC  300C               	movlw	12
   771     07AD  00AC               	movwf	??_main+1
   772     07AE  3033               	movlw	51
   773     07AF  00AB               	movwf	??_main
   774     07B0                     u1077:
   775     07B0  0BAB               	decfsz	??_main,f
   776     07B1  2FB0               	goto	u1077
   777     07B2  0BAC               	decfsz	??_main+1,f
   778     07B3  2FB0               	goto	u1077
   779     07B4  0BAD               	decfsz	??_main+2,f
   780     07B5  2FB0               	goto	u1077
   781     07B6                     l1437:
   782                           
   783                           ;main.c: 88:     }
   784     07B6  3001               	movlw	1
   785     07B7  1283               	bcf	3,5	;RP0=0, select bank0
   786     07B8  1303               	bcf	3,6	;RP1=0, select bank0
   787     07B9  07AF               	addwf	main@i,f
   788     07BA  1803               	skipnc
   789     07BB  0AB0               	incf	main@i+1,f
   790     07BC  3000               	movlw	0
   791     07BD  07B0               	addwf	main@i+1,f
   792     07BE                     l1439:
   793     07BE  0830               	movf	main@i+1,w
   794     07BF  3A80               	xorlw	128
   795     07C0  00FF               	movwf	btemp+1
   796     07C1  3080               	movlw	128
   797     07C2  027F               	subwf	btemp+1,w
   798     07C3  1D03               	skipz
   799     07C4  2FC7               	goto	u1025
   800     07C5  3008               	movlw	8
   801     07C6  022F               	subwf	main@i,w
   802     07C7                     u1025:
   803     07C7  1C03               	skipc
   804     07C8  2FCA               	goto	u1021
   805     07C9  2FCB               	goto	u1020
   806     07CA                     u1021:
   807     07CA  2FA2               	goto	l1433
   808     07CB                     u1020:
   809     07CB                     l1441:
   810                           
   811                           ;main.c: 90:     for(i=0;i<8;i++)
   812     07CB  1283               	bcf	3,5	;RP0=0, select bank0
   813     07CC  1303               	bcf	3,6	;RP1=0, select bank0
   814     07CD  01AF               	clrf	main@i
   815     07CE  01B0               	clrf	main@i+1
   816     07CF                     l1447:
   817                           
   818                           ;main.c: 91:     {;main.c: 92:         lcd_cmd((0x18));
   819     07CF  3018               	movlw	24
   820     07D0  120A  118A  2446  120A  118A  	fcall	_lcd_cmd
   821     07D5                     l1449:
   822                           
   823                           ;main.c: 93:         _delay((unsigned long)((300)*((8000000)/4000.0)));
   824     07D5  3004               	movlw	4
   825     07D6  1283               	bcf	3,5	;RP0=0, select bank0
   826     07D7  1303               	bcf	3,6	;RP1=0, select bank0
   827     07D8  00AD               	movwf	??_main+2
   828     07D9  300C               	movlw	12
   829     07DA  00AC               	movwf	??_main+1
   830     07DB  3033               	movlw	51
   831     07DC  00AB               	movwf	??_main
   832     07DD                     u1087:
   833     07DD  0BAB               	decfsz	??_main,f
   834     07DE  2FDD               	goto	u1087
   835     07DF  0BAC               	decfsz	??_main+1,f
   836     07E0  2FDD               	goto	u1087
   837     07E1  0BAD               	decfsz	??_main+2,f
   838     07E2  2FDD               	goto	u1087
   839     07E3                     l1451:
   840                           
   841                           ;main.c: 94:     }
   842     07E3  3001               	movlw	1
   843     07E4  1283               	bcf	3,5	;RP0=0, select bank0
   844     07E5  1303               	bcf	3,6	;RP1=0, select bank0
   845     07E6  07AF               	addwf	main@i,f
   846     07E7  1803               	skipnc
   847     07E8  0AB0               	incf	main@i+1,f
   848     07E9  3000               	movlw	0
   849     07EA  07B0               	addwf	main@i+1,f
   850     07EB                     l1453:
   851     07EB  0830               	movf	main@i+1,w
   852     07EC  3A80               	xorlw	128
   853     07ED  00FF               	movwf	btemp+1
   854     07EE  3080               	movlw	128
   855     07EF  027F               	subwf	btemp+1,w
   856     07F0  1D03               	skipz
   857     07F1  2FF4               	goto	u1035
   858     07F2  3008               	movlw	8
   859     07F3  022F               	subwf	main@i,w
   860     07F4                     u1035:
   861     07F4  1C03               	skipc
   862     07F5  2FF7               	goto	u1031
   863     07F6  2FF8               	goto	u1030
   864     07F7                     u1031:
   865     07F7  2FCF               	goto	l1447
   866     07F8                     u1030:
   867     07F8  2F9E               	goto	l1427
   868     07F9  120A  118A  2800   	ljmp	start
   869     07FC                     __end_of_main:
   870                           
   871                           	psect	text1
   872     0561                     __ptext1:	
   873 ;; *************** function _lcd_init *****************
   874 ;; Defined at:
   875 ;;		line 54 in file "lcd.c"
   876 ;; Parameters:    Size  Location     Type
   877 ;;		None
   878 ;; Auto vars:     Size  Location     Type
   879 ;;		None
   880 ;; Return value:  Size  Location     Type
   881 ;;                  1    wreg      void 
   882 ;; Registers used:
   883 ;;		wreg, status,2, status,0, pclath, cstack
   884 ;; Tracked objects:
   885 ;;		On entry : 0/0
   886 ;;		On exit  : 0/0
   887 ;;		Unchanged: 0/0
   888 ;; Data sizes:     COMMON   BANK0   BANK1   BANK3   BANK2
   889 ;;      Params:         0       0       0       0       0
   890 ;;      Locals:         0       0       0       0       0
   891 ;;      Temps:          2       0       0       0       0
   892 ;;      Totals:         2       0       0       0       0
   893 ;;Total ram usage:        2 bytes
   894 ;; Hardware stack levels used: 1
   895 ;; Hardware stack levels required when called: 2
   896 ;; This function calls:
   897 ;;		_LCD_SEND_4BIT_CMD
   898 ;;		_SET_LCD_DATA_PINS
   899 ;; This function is called by:
   900 ;;		_main
   901 ;; This function uses a non-reentrant model
   902 ;;
   903                           
   904     0561                     _lcd_init:	
   905                           ;psect for function _lcd_init
   906                           
   907     0561                     l1369:	
   908                           ;incstack = 0
   909                           ; Regs used in _lcd_init: [wreg+status,2+status,0+pclath+cstack]
   910                           
   911                           
   912                           ;lcd.c: 57:   TRISD0 = 0;
   913     0561  1683               	bsf	3,5	;RP0=1, select bank1
   914     0562  1303               	bcf	3,6	;RP1=0, select bank1
   915     0563  1008               	bcf	8,0	;volatile
   916                           
   917                           ;lcd.c: 58:   TRISD1 = 0;
   918     0564  1088               	bcf	8,1	;volatile
   919                           
   920                           ;lcd.c: 59:   TRISD2 = 0;
   921     0565  1108               	bcf	8,2	;volatile
   922                           
   923                           ;lcd.c: 60:   TRISD3 = 0;
   924     0566  1188               	bcf	8,3	;volatile
   925                           
   926                           ;lcd.c: 61:   TRISD4 = 0;
   927     0567  1208               	bcf	8,4	;volatile
   928                           
   929                           ;lcd.c: 62:   TRISD5 = 0;
   930     0568  1288               	bcf	8,5	;volatile
   931     0569                     l1371:
   932                           
   933                           ;lcd.c: 64:   SET_LCD_DATA_PINS(0x00);
   934     0569  3000               	movlw	0
   935     056A  120A  118A  2478  120A  118A  	fcall	_SET_LCD_DATA_PINS
   936     056F                     l1373:
   937                           
   938                           ;lcd.c: 65:   _delay((unsigned long)((30)*((8000000)/4000.0)));
   939     056F  304E               	movlw	78
   940     0570  00F5               	movwf	??_lcd_init+1
   941     0571  30EB               	movlw	235
   942     0572  00F4               	movwf	??_lcd_init
   943     0573                     u1097:
   944     0573  0BF4               	decfsz	??_lcd_init,f
   945     0574  2D73               	goto	u1097
   946     0575  0BF5               	decfsz	??_lcd_init+1,f
   947     0576  2D73               	goto	u1097
   948     0577                     l1375:
   949                           
   950                           ;lcd.c: 66:   _delay((unsigned long)((1800)*((8000000)/4000000.0)));
   951     0577  3005               	movlw	5
   952     0578  00F5               	movwf	??_lcd_init+1
   953     0579  30AB               	movlw	171
   954     057A  00F4               	movwf	??_lcd_init
   955     057B                     u1107:
   956     057B  0BF4               	decfsz	??_lcd_init,f
   957     057C  2D7B               	goto	u1107
   958     057D  0BF5               	decfsz	??_lcd_init+1,f
   959     057E  2D7B               	goto	u1107
   960     057F  2D80               	nop2
   961                           
   962                           ;lcd.c: 67:    LCD_SEND_4BIT_CMD(0x03);
   963     0580  3003               	movlw	3
   964     0581  120A  118A  245E  120A  118A  	fcall	_LCD_SEND_4BIT_CMD
   965     0586                     l1377:
   966                           
   967                           ;lcd.c: 68:   _delay((unsigned long)((5)*((8000000)/4000.0)));
   968     0586  300D               	movlw	13
   969     0587  00F5               	movwf	??_lcd_init+1
   970     0588  30FB               	movlw	251
   971     0589  00F4               	movwf	??_lcd_init
   972     058A                     u1117:
   973     058A  0BF4               	decfsz	??_lcd_init,f
   974     058B  2D8A               	goto	u1117
   975     058C  0BF5               	decfsz	??_lcd_init+1,f
   976     058D  2D8A               	goto	u1117
   977     058E  2D8F               	nop2
   978     058F                     l1379:
   979                           
   980                           ;lcd.c: 69:    LCD_SEND_4BIT_CMD(0x03);
   981     058F  3003               	movlw	3
   982     0590  120A  118A  245E  120A  118A  	fcall	_LCD_SEND_4BIT_CMD
   983                           
   984                           ;lcd.c: 70:   _delay((unsigned long)((150)*((8000000)/4000000.0)));
   985     0595  3063               	movlw	99
   986     0596  00F4               	movwf	??_lcd_init
   987     0597                     u1127:
   988     0597  0BF4               	decfsz	??_lcd_init,f
   989     0598  2D97               	goto	u1127
   990     0599  2D9A               	nop2
   991     059A                     l1381:
   992                           
   993                           ;lcd.c: 71:    LCD_SEND_4BIT_CMD(0x03);
   994     059A  3003               	movlw	3
   995     059B  120A  118A  245E  120A  118A  	fcall	_LCD_SEND_4BIT_CMD
   996     05A0                     l1383:
   997                           
   998                           ;lcd.c: 72:    LCD_SEND_4BIT_CMD(0x02);
   999     05A0  3002               	movlw	2
  1000     05A1  120A  118A  245E  120A  118A  	fcall	_LCD_SEND_4BIT_CMD
  1001     05A6                     l1385:
  1002                           
  1003                           ;lcd.c: 73:    LCD_SEND_4BIT_CMD(0x02);
  1004     05A6  3002               	movlw	2
  1005     05A7  120A  118A  245E  120A  118A  	fcall	_LCD_SEND_4BIT_CMD
  1006     05AC                     l1387:
  1007                           
  1008                           ;lcd.c: 74:    LCD_SEND_4BIT_CMD(0x08);
  1009     05AC  3008               	movlw	8
  1010     05AD  120A  118A  245E  120A  118A  	fcall	_LCD_SEND_4BIT_CMD
  1011     05B2                     l1389:
  1012                           
  1013                           ;lcd.c: 75:    LCD_SEND_4BIT_CMD(0x00);
  1014     05B2  3000               	movlw	0
  1015     05B3  120A  118A  245E  120A  118A  	fcall	_LCD_SEND_4BIT_CMD
  1016     05B8                     l1391:
  1017                           
  1018                           ;lcd.c: 76:    LCD_SEND_4BIT_CMD(0x0C);
  1019     05B8  300C               	movlw	12
  1020     05B9  120A  118A  245E  120A  118A  	fcall	_LCD_SEND_4BIT_CMD
  1021     05BE                     l1393:
  1022                           
  1023                           ;lcd.c: 77:    LCD_SEND_4BIT_CMD(0x00);
  1024     05BE  3000               	movlw	0
  1025     05BF  120A  118A  245E  120A  118A  	fcall	_LCD_SEND_4BIT_CMD
  1026     05C4                     l1395:
  1027                           
  1028                           ;lcd.c: 78:    LCD_SEND_4BIT_CMD(0x06);
  1029     05C4  3006               	movlw	6
  1030     05C5  120A  118A  245E  120A  118A  	fcall	_LCD_SEND_4BIT_CMD
  1031     05CA                     l175:
  1032     05CA  0008               	return
  1033     05CB                     __end_of_lcd_init:
  1034                           
  1035                           	psect	text2
  1036     0438                     __ptext2:	
  1037 ;; *************** function _keypad_init *****************
  1038 ;; Defined at:
  1039 ;;		line 3 in file "keypad.c"
  1040 ;; Parameters:    Size  Location     Type
  1041 ;;		None
  1042 ;; Auto vars:     Size  Location     Type
  1043 ;;		None
  1044 ;; Return value:  Size  Location     Type
  1045 ;;                  1    wreg      void 
  1046 ;; Registers used:
  1047 ;;		wreg, status,2
  1048 ;; Tracked objects:
  1049 ;;		On entry : 0/0
  1050 ;;		On exit  : 0/0
  1051 ;;		Unchanged: 0/0
  1052 ;; Data sizes:     COMMON   BANK0   BANK1   BANK3   BANK2
  1053 ;;      Params:         0       0       0       0       0
  1054 ;;      Locals:         0       0       0       0       0
  1055 ;;      Temps:          0       0       0       0       0
  1056 ;;      Totals:         0       0       0       0       0
  1057 ;;Total ram usage:        0 bytes
  1058 ;; Hardware stack levels used: 1
  1059 ;; This function calls:
  1060 ;;		Nothing
  1061 ;; This function is called by:
  1062 ;;		_main
  1063 ;; This function uses a non-reentrant model
  1064 ;;
  1065                           
  1066     0438                     _keypad_init:	
  1067                           ;psect for function _keypad_init
  1068                           
  1069     0438                     l1397:	
  1070                           ;incstack = 0
  1071                           ; Regs used in _keypad_init: [wreg+status,2]
  1072                           
  1073                           
  1074                           ;keypad.c: 4:         TRISB = 0xF0;
  1075     0438  30F0               	movlw	240
  1076     0439  1683               	bsf	3,5	;RP0=1, select bank1
  1077     043A  1303               	bcf	3,6	;RP1=0, select bank1
  1078     043B  0086               	movwf	6	;volatile
  1079                           
  1080                           ;keypad.c: 5:         PORTB = 0xFF;
  1081     043C  30FF               	movlw	255
  1082     043D  1283               	bcf	3,5	;RP0=0, select bank0
  1083     043E  1303               	bcf	3,6	;RP1=0, select bank0
  1084     043F  0086               	movwf	6	;volatile
  1085     0440                     l1399:
  1086                           
  1087                           ;keypad.c: 7:         (OPTION_REG = OPTION_REG & (~(1<<7)));
  1088     0440  1683               	bsf	3,5	;RP0=1, select bank1
  1089     0441  1303               	bcf	3,6	;RP1=0, select bank1
  1090     0442  0801               	movf	1,w	;volatile
  1091     0443  397F               	andlw	127
  1092     0444  0081               	movwf	1	;volatile
  1093     0445                     l50:
  1094     0445  0008               	return
  1095     0446                     __end_of_keypad_init:
  1096                           
  1097                           	psect	text3
  1098     05CB                     __ptext3:	
  1099 ;; *************** function _Get_Password *****************
  1100 ;; Defined at:
  1101 ;;		line 18 in file "main.c"
  1102 ;; Parameters:    Size  Location     Type
  1103 ;;		None
  1104 ;; Auto vars:     Size  Location     Type
  1105 ;;  i               2    8[BANK0 ] int 
  1106 ;;  state           2    6[BANK0 ] int 
  1107 ;;  pass            1   10[BANK0 ] unsigned char 
  1108 ;; Return value:  Size  Location     Type
  1109 ;;                  1    wreg      unsigned char 
  1110 ;; Registers used:
  1111 ;;		wreg, fsr0l, fsr0h, status,2, status,0, btemp+1, pclath, cstack
  1112 ;; Tracked objects:
  1113 ;;		On entry : 0/0
  1114 ;;		On exit  : 0/0
  1115 ;;		Unchanged: 0/0
  1116 ;; Data sizes:     COMMON   BANK0   BANK1   BANK3   BANK2
  1117 ;;      Params:         0       0       0       0       0
  1118 ;;      Locals:         0       5       0       0       0
  1119 ;;      Temps:          0       3       0       0       0
  1120 ;;      Totals:         0       8       0       0       0
  1121 ;;Total ram usage:        8 bytes
  1122 ;; Hardware stack levels used: 1
  1123 ;; Hardware stack levels required when called: 4
  1124 ;; This function calls:
  1125 ;;		_keypad_get_key
  1126 ;;		_lcd_chr_cp
  1127 ;;		_lcd_cmd
  1128 ;;		_lcd_out
  1129 ;;		_lcd_set_cursor
  1130 ;; This function is called by:
  1131 ;;		_main
  1132 ;; This function uses a non-reentrant model
  1133 ;;
  1134                           
  1135     05CB                     _Get_Password:	
  1136                           ;psect for function _Get_Password
  1137                           
  1138     05CB                     l1331:	
  1139                           ;incstack = 0
  1140                           ; Regs used in _Get_Password: [wreg-fsr0h+status,2+status,0+btemp+1+pclath+cstack]
  1141                           
  1142                           
  1143                           ;main.c: 20:     int i;;main.c: 21:     int state=0;
  1144     05CB  1283               	bcf	3,5	;RP0=0, select bank0
  1145     05CC  1303               	bcf	3,6	;RP1=0, select bank0
  1146     05CD  01A6               	clrf	Get_Password@state
  1147     05CE  01A7               	clrf	Get_Password@state+1
  1148     05CF                     l1333:
  1149                           
  1150                           ;main.c: 22:     lcd_cmd((0x01));
  1151     05CF  3001               	movlw	1
  1152     05D0  120A  118A  2446  120A  118A  	fcall	_lcd_cmd
  1153     05D5                     l1335:
  1154                           
  1155                           ;main.c: 23:     lcd_cmd((0x02));
  1156     05D5  3002               	movlw	2
  1157     05D6  120A  118A  2446  120A  118A  	fcall	_lcd_cmd
  1158     05DB                     l1337:
  1159                           
  1160                           ;main.c: 24:     lcd_cmd((0x0C));
  1161     05DB  300C               	movlw	12
  1162     05DC  120A  118A  2446  120A  118A  	fcall	_lcd_cmd
  1163     05E1                     l1339:
  1164                           
  1165                           ;main.c: 25:     lcd_out(1,1,"Enter the password");
  1166     05E1  01FA               	clrf	lcd_out@col
  1167     05E2  0AFA               	incf	lcd_out@col,f
  1168     05E3  3001               	movlw	(low ((STR_1-__stringbase)| (0+32768)))& (0+255)
  1169     05E4  00FB               	movwf	lcd_out@str
  1170     05E5  3001               	movlw	1
  1171     05E6  120A  118A  249A  120A  118A  	fcall	_lcd_out
  1172     05EB                     l1341:
  1173                           
  1174                           ;main.c: 26:     char pass;;main.c: 28:     lcd_set_cursor(2,1);
  1175     05EB  01F4               	clrf	lcd_set_cursor@c
  1176     05EC  0AF4               	incf	lcd_set_cursor@c,f
  1177     05ED  3002               	movlw	2
  1178     05EE  120A  118A  24CD  120A  118A  	fcall	_lcd_set_cursor
  1179     05F3                     l1343:
  1180                           
  1181                           ;main.c: 29:     for(i=0;i<4;i++)
  1182     05F3  1283               	bcf	3,5	;RP0=0, select bank0
  1183     05F4  1303               	bcf	3,6	;RP1=0, select bank0
  1184     05F5  01A8               	clrf	Get_Password@i
  1185     05F6  01A9               	clrf	Get_Password@i+1
  1186     05F7                     l1349:
  1187                           
  1188                           ;main.c: 30:     {;main.c: 31:         pass='\0';
  1189     05F7  1283               	bcf	3,5	;RP0=0, select bank0
  1190     05F8  1303               	bcf	3,6	;RP1=0, select bank0
  1191     05F9  01AA               	clrf	Get_Password@pass
  1192                           
  1193                           ;main.c: 32:         while(pass=='\0')
  1194     05FA  2E03               	goto	l1353
  1195     05FB                     l1351:
  1196                           
  1197                           ;main.c: 33:         {;main.c: 34:             pass=keypad_get_key();
  1198     05FB  120A  118A  2652  120A  118A  	fcall	_keypad_get_key
  1199     0600  1283               	bcf	3,5	;RP0=0, select bank0
  1200     0601  1303               	bcf	3,6	;RP1=0, select bank0
  1201     0602  00AA               	movwf	Get_Password@pass
  1202     0603                     l1353:
  1203                           
  1204                           ;main.c: 32:         while(pass=='\0')
  1205     0603  082A               	movf	Get_Password@pass,w
  1206     0604  1903               	btfsc	3,2
  1207     0605  2E07               	goto	u961
  1208     0606  2E08               	goto	u960
  1209     0607                     u961:
  1210     0607  2DFB               	goto	l1351
  1211     0608                     u960:
  1212     0608                     l1355:
  1213                           
  1214                           ;main.c: 36:         lcd_chr_cp(pass);
  1215     0608  082A               	movf	Get_Password@pass,w
  1216     0609  120A  118A  2430  120A  118A  	fcall	_lcd_chr_cp
  1217     060E                     l1357:
  1218                           
  1219                           ;main.c: 38:        if(pass!=i+1+48)
  1220     060E  1283               	bcf	3,5	;RP0=0, select bank0
  1221     060F  1303               	bcf	3,6	;RP1=0, select bank0
  1222     0610  0828               	movf	Get_Password@i,w
  1223     0611  3E31               	addlw	49
  1224     0612  00A3               	movwf	??_Get_Password
  1225     0613  0829               	movf	Get_Password@i+1,w
  1226     0614  1803               	skipnc
  1227     0615  3E01               	addlw	1
  1228     0616  3E00               	addlw	0
  1229     0617  00A4               	movwf	??_Get_Password+1
  1230     0618  082A               	movf	Get_Password@pass,w
  1231     0619  0623               	xorwf	??_Get_Password,w
  1232     061A  0424               	iorwf	??_Get_Password+1,w
  1233     061B  1903               	skipnz
  1234     061C  2E1E               	goto	u971
  1235     061D  2E1F               	goto	u970
  1236     061E                     u971:
  1237     061E  2E25               	goto	l24
  1238     061F                     u970:
  1239     061F                     l1359:
  1240                           
  1241                           ;main.c: 39:        {;main.c: 40:            state++;
  1242     061F  3001               	movlw	1
  1243     0620  07A6               	addwf	Get_Password@state,f
  1244     0621  1803               	skipnc
  1245     0622  0AA7               	incf	Get_Password@state+1,f
  1246     0623  3000               	movlw	0
  1247     0624  07A7               	addwf	Get_Password@state+1,f
  1248     0625                     l24:	
  1249                           ;main.c: 41:        }
  1250                           
  1251                           
  1252                           ;main.c: 42:     }
  1253     0625  3001               	movlw	1
  1254     0626  07A8               	addwf	Get_Password@i,f
  1255     0627  1803               	skipnc
  1256     0628  0AA9               	incf	Get_Password@i+1,f
  1257     0629  3000               	movlw	0
  1258     062A  07A9               	addwf	Get_Password@i+1,f
  1259     062B                     l1361:
  1260     062B  0829               	movf	Get_Password@i+1,w
  1261     062C  3A80               	xorlw	128
  1262     062D  00FF               	movwf	btemp+1
  1263     062E  3080               	movlw	128
  1264     062F  027F               	subwf	btemp+1,w
  1265     0630  1D03               	skipz
  1266     0631  2E34               	goto	u985
  1267     0632  3004               	movlw	4
  1268     0633  0228               	subwf	Get_Password@i,w
  1269     0634                     u985:
  1270     0634  1C03               	skipc
  1271     0635  2E37               	goto	u981
  1272     0636  2E38               	goto	u980
  1273     0637                     u981:
  1274     0637  2DF7               	goto	l1349
  1275     0638                     u980:
  1276     0638                     l1363:
  1277                           
  1278                           ;main.c: 43:     _delay((unsigned long)((200)*((8000000)/4000.0)));
  1279     0638  3003               	movlw	3
  1280     0639  1283               	bcf	3,5	;RP0=0, select bank0
  1281     063A  1303               	bcf	3,6	;RP1=0, select bank0
  1282     063B  00A5               	movwf	??_Get_Password+2
  1283     063C  3008               	movlw	8
  1284     063D  00A4               	movwf	??_Get_Password+1
  1285     063E  3076               	movlw	118
  1286     063F  00A3               	movwf	??_Get_Password
  1287     0640                     u1137:
  1288     0640  0BA3               	decfsz	??_Get_Password,f
  1289     0641  2E40               	goto	u1137
  1290     0642  0BA4               	decfsz	??_Get_Password+1,f
  1291     0643  2E40               	goto	u1137
  1292     0644  0BA5               	decfsz	??_Get_Password+2,f
  1293     0645  2E40               	goto	u1137
  1294     0646  0000               	nop
  1295     0647                     l1365:
  1296                           
  1297                           ;main.c: 44:     return state==0?1:0;
  1298     0647  1283               	bcf	3,5	;RP0=0, select bank0
  1299     0648  1303               	bcf	3,6	;RP1=0, select bank0
  1300     0649  0826               	movf	Get_Password@state,w
  1301     064A  0427               	iorwf	Get_Password@state+1,w
  1302     064B  1903               	btfsc	3,2
  1303     064C  2E4E               	goto	u991
  1304     064D  2E50               	goto	u990
  1305     064E                     u991:
  1306     064E  3001               	movlw	1
  1307     064F  2E51               	goto	u1000
  1308     0650                     u990:
  1309     0650  3000               	movlw	0
  1310     0651                     u1000:
  1311     0651                     l25:
  1312     0651  0008               	return
  1313     0652                     __end_of_Get_Password:
  1314                           
  1315                           	psect	text4
  1316     049A                     __ptext4:	
  1317 ;; *************** function _lcd_out *****************
  1318 ;; Defined at:
  1319 ;;		line 116 in file "lcd.c"
  1320 ;; Parameters:    Size  Location     Type
  1321 ;;  row             1    wreg     unsigned char 
  1322 ;;  col             1   10[COMMON] unsigned char 
  1323 ;;  str             1   11[COMMON] PTR unsigned char 
  1324 ;;		 -> STR_5(8), STR_4(6), STR_3(15), STR_2(13), 
  1325 ;;		 -> STR_1(19), 
  1326 ;; Auto vars:     Size  Location     Type
  1327 ;;  row             1    0[BANK0 ] unsigned char 
  1328 ;;  i               2    1[BANK0 ] int 
  1329 ;; Return value:  Size  Location     Type
  1330 ;;                  1    wreg      void 
  1331 ;; Registers used:
  1332 ;;		wreg, fsr0l, fsr0h, status,2, status,0, pclath, cstack
  1333 ;; Tracked objects:
  1334 ;;		On entry : 0/0
  1335 ;;		On exit  : 0/0
  1336 ;;		Unchanged: 0/0
  1337 ;; Data sizes:     COMMON   BANK0   BANK1   BANK3   BANK2
  1338 ;;      Params:         2       0       0       0       0
  1339 ;;      Locals:         0       3       0       0       0
  1340 ;;      Temps:          0       0       0       0       0
  1341 ;;      Totals:         2       3       0       0       0
  1342 ;;Total ram usage:        5 bytes
  1343 ;; Hardware stack levels used: 1
  1344 ;; Hardware stack levels required when called: 3
  1345 ;; This function calls:
  1346 ;;		_LCD_Write_Char
  1347 ;;		_lcd_set_cursor
  1348 ;; This function is called by:
  1349 ;;		_Get_Password
  1350 ;;		_main
  1351 ;; This function uses a non-reentrant model
  1352 ;;
  1353                           
  1354     049A                     _lcd_out:	
  1355                           ;psect for function _lcd_out
  1356                           
  1357                           
  1358                           ;incstack = 0
  1359                           ; Regs used in _lcd_out: [wreg-fsr0h+status,2+status,0+pclath+cstack]
  1360                           ;lcd_out@row stored from wreg
  1361     049A  1283               	bcf	3,5	;RP0=0, select bank0
  1362     049B  1303               	bcf	3,6	;RP1=0, select bank0
  1363     049C  00A0               	movwf	lcd_out@row
  1364     049D                     l1171:
  1365                           
  1366                           ;lcd.c: 116: void lcd_out(unsigned char row, unsigned char col,char *str);lcd.c: 117: {;
      +                          lcd.c: 118:   int i;;lcd.c: 119:   lcd_set_cursor(row,col);
  1367     049D  087A               	movf	lcd_out@col,w
  1368     049E  00F4               	movwf	lcd_set_cursor@c
  1369     049F  0820               	movf	lcd_out@row,w
  1370     04A0  120A  118A  24CD  120A  118A  	fcall	_lcd_set_cursor
  1371     04A5                     l1173:
  1372                           
  1373                           ;lcd.c: 120:   for(i=0;str[i]!='\0';i++)
  1374     04A5  1283               	bcf	3,5	;RP0=0, select bank0
  1375     04A6  1303               	bcf	3,6	;RP1=0, select bank0
  1376     04A7  01A1               	clrf	lcd_out@i
  1377     04A8  01A2               	clrf	lcd_out@i+1
  1378     04A9  2CBF               	goto	l1179
  1379     04AA                     l1175:
  1380                           
  1381                           ;lcd.c: 121:     LCD_Write_Char(str[i]);
  1382     04AA  0821               	movf	lcd_out@i,w
  1383     04AB  077B               	addwf	lcd_out@str,w
  1384     04AC  0084               	movwf	4
  1385     04AD  120A  118A  2003  120A  118A  	fcall	stringdir
  1386     04B2  120A  118A  2512  120A  118A  	fcall	_LCD_Write_Char
  1387     04B7                     l1177:
  1388     04B7  3001               	movlw	1
  1389     04B8  1283               	bcf	3,5	;RP0=0, select bank0
  1390     04B9  1303               	bcf	3,6	;RP1=0, select bank0
  1391     04BA  07A1               	addwf	lcd_out@i,f
  1392     04BB  1803               	skipnc
  1393     04BC  0AA2               	incf	lcd_out@i+1,f
  1394     04BD  3000               	movlw	0
  1395     04BE  07A2               	addwf	lcd_out@i+1,f
  1396     04BF                     l1179:
  1397     04BF  0821               	movf	lcd_out@i,w
  1398     04C0  077B               	addwf	lcd_out@str,w
  1399     04C1  0084               	movwf	4
  1400     04C2  120A  118A  2003  120A  118A  	fcall	stringdir
  1401     04C7  3A00               	xorlw	0
  1402     04C8  1D03               	skipz
  1403     04C9  2CCB               	goto	u631
  1404     04CA  2CCC               	goto	u630
  1405     04CB                     u631:
  1406     04CB  2CAA               	goto	l1175
  1407     04CC                     u630:
  1408     04CC                     l195:
  1409     04CC  0008               	return
  1410     04CD                     __end_of_lcd_out:
  1411                           
  1412                           	psect	text5
  1413     04CD                     __ptext5:	
  1414 ;; *************** function _lcd_set_cursor *****************
  1415 ;; Defined at:
  1416 ;;		line 87 in file "lcd.c"
  1417 ;; Parameters:    Size  Location     Type
  1418 ;;  r               1    wreg     unsigned char 
  1419 ;;  c               1    4[COMMON] unsigned char 
  1420 ;; Auto vars:     Size  Location     Type
  1421 ;;  r               1    6[COMMON] unsigned char 
  1422 ;;  Temp            1    9[COMMON] unsigned char 
  1423 ;;  High4           1    8[COMMON] unsigned char 
  1424 ;;  Low4            1    7[COMMON] unsigned char 
  1425 ;; Return value:  Size  Location     Type
  1426 ;;                  1    wreg      void 
  1427 ;; Registers used:
  1428 ;;		wreg, status,2, status,0, pclath, cstack
  1429 ;; Tracked objects:
  1430 ;;		On entry : 0/0
  1431 ;;		On exit  : 0/0
  1432 ;;		Unchanged: 0/0
  1433 ;; Data sizes:     COMMON   BANK0   BANK1   BANK3   BANK2
  1434 ;;      Params:         1       0       0       0       0
  1435 ;;      Locals:         4       0       0       0       0
  1436 ;;      Temps:          1       0       0       0       0
  1437 ;;      Totals:         6       0       0       0       0
  1438 ;;Total ram usage:        6 bytes
  1439 ;; Hardware stack levels used: 1
  1440 ;; Hardware stack levels required when called: 2
  1441 ;; This function calls:
  1442 ;;		_LCD_SEND_4BIT_CMD
  1443 ;; This function is called by:
  1444 ;;		_Get_Password
  1445 ;;		_lcd_out
  1446 ;;		_lcd_chr
  1447 ;; This function uses a non-reentrant model
  1448 ;;
  1449                           
  1450     04CD                     _lcd_set_cursor:	
  1451                           ;psect for function _lcd_set_cursor
  1452                           
  1453                           
  1454                           ;incstack = 0
  1455                           ; Regs used in _lcd_set_cursor: [wreg+status,2+status,0+pclath+cstack]
  1456                           ;lcd_set_cursor@r stored from wreg
  1457     04CD  00F6               	movwf	lcd_set_cursor@r
  1458     04CE                     l1125:
  1459                           
  1460                           ;lcd.c: 87: void lcd_set_cursor(unsigned char r, unsigned char c);lcd.c: 88: {;lcd.c: 89
      +                          :   unsigned char Temp,Low4,High4;;lcd.c: 90:   if(r == 1)
  1461     04CE  0376               	decf	lcd_set_cursor@r,w
  1462     04CF  1D03               	btfss	3,2
  1463     04D0  2CD2               	goto	u571
  1464     04D1  2CD3               	goto	u570
  1465     04D2                     u571:
  1466     04D2  2CEF               	goto	l1135
  1467     04D3                     u570:
  1468     04D3                     l1127:
  1469                           
  1470                           ;lcd.c: 91:   {;lcd.c: 92:     Temp = 0x80 + c - 1;
  1471     04D3  0874               	movf	lcd_set_cursor@c,w
  1472     04D4  3E7F               	addlw	127
  1473     04D5  00F9               	movwf	lcd_set_cursor@Temp
  1474                           
  1475                           ;lcd.c: 93:     High4 = Temp >> 4;
  1476     04D6  0879               	movf	lcd_set_cursor@Temp,w
  1477     04D7  00F5               	movwf	??_lcd_set_cursor
  1478     04D8  3004               	movlw	4
  1479     04D9                     u585:
  1480     04D9  1003               	clrc
  1481     04DA  0CF5               	rrf	??_lcd_set_cursor,f
  1482     04DB  3EFF               	addlw	-1
  1483     04DC  1D03               	skipz
  1484     04DD  2CD9               	goto	u585
  1485     04DE  0875               	movf	??_lcd_set_cursor,w
  1486     04DF  00F8               	movwf	lcd_set_cursor@High4
  1487     04E0                     l1129:
  1488                           
  1489                           ;lcd.c: 94:     Low4 = Temp & 0x0F;
  1490     04E0  0879               	movf	lcd_set_cursor@Temp,w
  1491     04E1  390F               	andlw	15
  1492     04E2  00F7               	movwf	lcd_set_cursor@Low4
  1493     04E3                     l1131:
  1494                           
  1495                           ;lcd.c: 95:     LCD_SEND_4BIT_CMD(High4);
  1496     04E3  0878               	movf	lcd_set_cursor@High4,w
  1497     04E4  120A  118A  245E  120A  118A  	fcall	_LCD_SEND_4BIT_CMD
  1498     04E9                     l1133:
  1499                           
  1500                           ;lcd.c: 96:     LCD_SEND_4BIT_CMD(Low4);
  1501     04E9  0877               	movf	lcd_set_cursor@Low4,w
  1502     04EA  120A  118A  245E  120A  118A  	fcall	_LCD_SEND_4BIT_CMD
  1503     04EF                     l1135:
  1504                           
  1505                           ;lcd.c: 98:   if(r == 2)
  1506     04EF  3002               	movlw	2
  1507     04F0  0676               	xorwf	lcd_set_cursor@r,w
  1508     04F1  1D03               	btfss	3,2
  1509     04F2  2CF4               	goto	u591
  1510     04F3  2CF5               	goto	u590
  1511     04F4                     u591:
  1512     04F4  2D11               	goto	l183
  1513     04F5                     u590:
  1514     04F5                     l1137:
  1515                           
  1516                           ;lcd.c: 99:   {;lcd.c: 100:     Temp = 0xC0 + c - 1;
  1517     04F5  0874               	movf	lcd_set_cursor@c,w
  1518     04F6  3EBF               	addlw	191
  1519     04F7  00F9               	movwf	lcd_set_cursor@Temp
  1520                           
  1521                           ;lcd.c: 101:     High4 = Temp >> 4;
  1522     04F8  0879               	movf	lcd_set_cursor@Temp,w
  1523     04F9  00F5               	movwf	??_lcd_set_cursor
  1524     04FA  3004               	movlw	4
  1525     04FB                     u605:
  1526     04FB  1003               	clrc
  1527     04FC  0CF5               	rrf	??_lcd_set_cursor,f
  1528     04FD  3EFF               	addlw	-1
  1529     04FE  1D03               	skipz
  1530     04FF  2CFB               	goto	u605
  1531     0500  0875               	movf	??_lcd_set_cursor,w
  1532     0501  00F8               	movwf	lcd_set_cursor@High4
  1533     0502                     l1139:
  1534                           
  1535                           ;lcd.c: 102:     Low4 = Temp & 0x0F;
  1536     0502  0879               	movf	lcd_set_cursor@Temp,w
  1537     0503  390F               	andlw	15
  1538     0504  00F7               	movwf	lcd_set_cursor@Low4
  1539     0505                     l1141:
  1540                           
  1541                           ;lcd.c: 103:     LCD_SEND_4BIT_CMD(High4);
  1542     0505  0878               	movf	lcd_set_cursor@High4,w
  1543     0506  120A  118A  245E  120A  118A  	fcall	_LCD_SEND_4BIT_CMD
  1544     050B                     l1143:
  1545                           
  1546                           ;lcd.c: 104:     LCD_SEND_4BIT_CMD(Low4);
  1547     050B  0877               	movf	lcd_set_cursor@Low4,w
  1548     050C  120A  118A  245E  120A  118A  	fcall	_LCD_SEND_4BIT_CMD
  1549     0511                     l183:
  1550     0511  0008               	return
  1551     0512                     __end_of_lcd_set_cursor:
  1552                           
  1553                           	psect	text6
  1554     0446                     __ptext6:	
  1555 ;; *************** function _lcd_cmd *****************
  1556 ;; Defined at:
  1557 ;;		line 80 in file "lcd.c"
  1558 ;; Parameters:    Size  Location     Type
  1559 ;;  command         1    wreg     unsigned char 
  1560 ;; Auto vars:     Size  Location     Type
  1561 ;;  command         1    5[COMMON] unsigned char 
  1562 ;; Return value:  Size  Location     Type
  1563 ;;                  1    wreg      void 
  1564 ;; Registers used:
  1565 ;;		wreg, status,2, status,0, pclath, cstack
  1566 ;; Tracked objects:
  1567 ;;		On entry : 0/0
  1568 ;;		On exit  : 0/0
  1569 ;;		Unchanged: 0/0
  1570 ;; Data sizes:     COMMON   BANK0   BANK1   BANK3   BANK2
  1571 ;;      Params:         0       0       0       0       0
  1572 ;;      Locals:         1       0       0       0       0
  1573 ;;      Temps:          1       0       0       0       0
  1574 ;;      Totals:         2       0       0       0       0
  1575 ;;Total ram usage:        2 bytes
  1576 ;; Hardware stack levels used: 1
  1577 ;; Hardware stack levels required when called: 2
  1578 ;; This function calls:
  1579 ;;		_LCD_SEND_4BIT_CMD
  1580 ;; This function is called by:
  1581 ;;		_Get_Password
  1582 ;;		_main
  1583 ;; This function uses a non-reentrant model
  1584 ;;
  1585                           
  1586     0446                     _lcd_cmd:	
  1587                           ;psect for function _lcd_cmd
  1588                           
  1589                           
  1590                           ;incstack = 0
  1591                           ; Regs used in _lcd_cmd: [wreg+status,2+status,0+pclath+cstack]
  1592                           ;lcd_cmd@command stored from wreg
  1593     0446  00F5               	movwf	lcd_cmd@command
  1594     0447                     l1169:
  1595                           
  1596                           ;lcd.c: 80: void lcd_cmd(unsigned char command);lcd.c: 81: {;lcd.c: 83:   LCD_SEND_4BIT_
      +                          CMD( (command & 0xF0) >> 4 );
  1597     0447  0875               	movf	lcd_cmd@command,w
  1598     0448  00F4               	movwf	??_lcd_cmd
  1599     0449  3004               	movlw	4
  1600     044A                     u625:
  1601     044A  1003               	clrc
  1602     044B  0CF4               	rrf	??_lcd_cmd,f
  1603     044C  3EFF               	addlw	-1
  1604     044D  1D03               	skipz
  1605     044E  2C4A               	goto	u625
  1606     044F  0874               	movf	??_lcd_cmd,w
  1607     0450  390F               	andlw	15
  1608     0451  120A  118A  245E  120A  118A  	fcall	_LCD_SEND_4BIT_CMD
  1609                           
  1610                           ;lcd.c: 85:   LCD_SEND_4BIT_CMD( command & 0x0F );
  1611     0456  0875               	movf	lcd_cmd@command,w
  1612     0457  390F               	andlw	15
  1613     0458  120A  118A  245E  120A  118A  	fcall	_LCD_SEND_4BIT_CMD
  1614     045D                     l178:
  1615     045D  0008               	return
  1616     045E                     __end_of_lcd_cmd:
  1617                           
  1618                           	psect	text7
  1619     045E                     __ptext7:	
  1620 ;; *************** function _LCD_SEND_4BIT_CMD *****************
  1621 ;; Defined at:
  1622 ;;		line 22 in file "lcd.c"
  1623 ;; Parameters:    Size  Location     Type
  1624 ;;  CMD             1    wreg     unsigned char 
  1625 ;; Auto vars:     Size  Location     Type
  1626 ;;  CMD             1    3[COMMON] unsigned char 
  1627 ;; Return value:  Size  Location     Type
  1628 ;;                  1    wreg      void 
  1629 ;; Registers used:
  1630 ;;		wreg, status,2, status,0, pclath, cstack
  1631 ;; Tracked objects:
  1632 ;;		On entry : 0/0
  1633 ;;		On exit  : 0/0
  1634 ;;		Unchanged: 0/0
  1635 ;; Data sizes:     COMMON   BANK0   BANK1   BANK3   BANK2
  1636 ;;      Params:         0       0       0       0       0
  1637 ;;      Locals:         1       0       0       0       0
  1638 ;;      Temps:          2       0       0       0       0
  1639 ;;      Totals:         3       0       0       0       0
  1640 ;;Total ram usage:        3 bytes
  1641 ;; Hardware stack levels used: 1
  1642 ;; Hardware stack levels required when called: 1
  1643 ;; This function calls:
  1644 ;;		_SET_LCD_DATA_PINS
  1645 ;; This function is called by:
  1646 ;;		_lcd_init
  1647 ;;		_lcd_cmd
  1648 ;;		_lcd_set_cursor
  1649 ;; This function uses a non-reentrant model
  1650 ;;
  1651                           
  1652     045E                     _LCD_SEND_4BIT_CMD:	
  1653                           ;psect for function _LCD_SEND_4BIT_CMD
  1654                           
  1655                           
  1656                           ;incstack = 0
  1657                           ; Regs used in _LCD_SEND_4BIT_CMD: [wreg+status,2+status,0+pclath+cstack]
  1658                           ;LCD_SEND_4BIT_CMD@CMD stored from wreg
  1659     045E  00F3               	movwf	LCD_SEND_4BIT_CMD@CMD
  1660     045F                     l1115:
  1661                           
  1662                           ;lcd.c: 22: static void LCD_SEND_4BIT_CMD(unsigned char CMD);lcd.c: 23: {;lcd.c: 25:   R
      +                          D0 = 0;
  1663     045F  1283               	bcf	3,5	;RP0=0, select bank0
  1664     0460  1303               	bcf	3,6	;RP1=0, select bank0
  1665     0461  1008               	bcf	8,0	;volatile
  1666     0462                     l1117:
  1667                           
  1668                           ;lcd.c: 27:   SET_LCD_DATA_PINS(CMD);
  1669     0462  0873               	movf	LCD_SEND_4BIT_CMD@CMD,w
  1670     0463  120A  118A  2478  120A  118A  	fcall	_SET_LCD_DATA_PINS
  1671     0468                     l1119:
  1672                           
  1673                           ;lcd.c: 29:   RD1 = 1;
  1674     0468  1283               	bcf	3,5	;RP0=0, select bank0
  1675     0469  1303               	bcf	3,6	;RP1=0, select bank0
  1676     046A  1488               	bsf	8,1	;volatile
  1677     046B                     l1121:
  1678                           
  1679                           ;lcd.c: 30:   _delay((unsigned long)((1800)*((8000000)/4000000.0)));
  1680     046B  3005               	movlw	5
  1681     046C  00F2               	movwf	??_LCD_SEND_4BIT_CMD+1
  1682     046D  30AB               	movlw	171
  1683     046E  00F1               	movwf	??_LCD_SEND_4BIT_CMD
  1684     046F                     u1147:
  1685     046F  0BF1               	decfsz	??_LCD_SEND_4BIT_CMD,f
  1686     0470  2C6F               	goto	u1147
  1687     0471  0BF2               	decfsz	??_LCD_SEND_4BIT_CMD+1,f
  1688     0472  2C6F               	goto	u1147
  1689     0473  2C74               	nop2
  1690     0474                     l1123:
  1691                           
  1692                           ;lcd.c: 31:   RD1 = 0;
  1693     0474  1283               	bcf	3,5	;RP0=0, select bank0
  1694     0475  1303               	bcf	3,6	;RP1=0, select bank0
  1695     0476  1088               	bcf	8,1	;volatile
  1696     0477                     l169:
  1697     0477  0008               	return
  1698     0478                     __end_of_LCD_SEND_4BIT_CMD:
  1699                           
  1700                           	psect	text8
  1701     0430                     __ptext8:	
  1702 ;; *************** function _lcd_chr_cp *****************
  1703 ;; Defined at:
  1704 ;;		line 112 in file "lcd.c"
  1705 ;; Parameters:    Size  Location     Type
  1706 ;;  chr             1    wreg     unsigned char 
  1707 ;; Auto vars:     Size  Location     Type
  1708 ;;  chr             1    6[COMMON] unsigned char 
  1709 ;; Return value:  Size  Location     Type
  1710 ;;                  1    wreg      void 
  1711 ;; Registers used:
  1712 ;;		wreg, status,2, status,0, pclath, cstack
  1713 ;; Tracked objects:
  1714 ;;		On entry : 0/0
  1715 ;;		On exit  : 0/0
  1716 ;;		Unchanged: 0/0
  1717 ;; Data sizes:     COMMON   BANK0   BANK1   BANK3   BANK2
  1718 ;;      Params:         0       0       0       0       0
  1719 ;;      Locals:         1       0       0       0       0
  1720 ;;      Temps:          0       0       0       0       0
  1721 ;;      Totals:         1       0       0       0       0
  1722 ;;Total ram usage:        1 bytes
  1723 ;; Hardware stack levels used: 1
  1724 ;; Hardware stack levels required when called: 2
  1725 ;; This function calls:
  1726 ;;		_LCD_Write_Char
  1727 ;; This function is called by:
  1728 ;;		_Get_Password
  1729 ;; This function uses a non-reentrant model
  1730 ;;
  1731                           
  1732     0430                     _lcd_chr_cp:	
  1733                           ;psect for function _lcd_chr_cp
  1734                           
  1735                           
  1736                           ;incstack = 0
  1737                           ; Regs used in _lcd_chr_cp: [wreg+status,2+status,0+pclath+cstack]
  1738                           ;lcd_chr_cp@chr stored from wreg
  1739     0430  00F6               	movwf	lcd_chr_cp@chr
  1740     0431                     l1329:
  1741                           
  1742                           ;lcd.c: 112: void lcd_chr_cp(unsigned char chr);lcd.c: 113: {;lcd.c: 114:   LCD_Write_Ch
      +                          ar(chr);
  1743     0431  0876               	movf	lcd_chr_cp@chr,w
  1744     0432  120A  118A  2512  120A  118A  	fcall	_LCD_Write_Char
  1745     0437                     l189:
  1746     0437  0008               	return
  1747     0438                     __end_of_lcd_chr_cp:
  1748                           
  1749                           	psect	text9
  1750     0512                     __ptext9:	
  1751 ;; *************** function _LCD_Write_Char *****************
  1752 ;; Defined at:
  1753 ;;		line 34 in file "lcd.c"
  1754 ;; Parameters:    Size  Location     Type
  1755 ;;  Data            1    wreg     unsigned char 
  1756 ;; Auto vars:     Size  Location     Type
  1757 ;;  Data            1    5[COMMON] unsigned char 
  1758 ;;  High4           1    4[COMMON] unsigned char 
  1759 ;;  Low4            1    3[COMMON] unsigned char 
  1760 ;; Return value:  Size  Location     Type
  1761 ;;                  1    wreg      void 
  1762 ;; Registers used:
  1763 ;;		wreg, status,2, status,0, pclath, cstack
  1764 ;; Tracked objects:
  1765 ;;		On entry : 0/0
  1766 ;;		On exit  : 0/0
  1767 ;;		Unchanged: 0/0
  1768 ;; Data sizes:     COMMON   BANK0   BANK1   BANK3   BANK2
  1769 ;;      Params:         0       0       0       0       0
  1770 ;;      Locals:         3       0       0       0       0
  1771 ;;      Temps:          2       0       0       0       0
  1772 ;;      Totals:         5       0       0       0       0
  1773 ;;Total ram usage:        5 bytes
  1774 ;; Hardware stack levels used: 1
  1775 ;; Hardware stack levels required when called: 1
  1776 ;; This function calls:
  1777 ;;		_SET_LCD_DATA_PINS
  1778 ;; This function is called by:
  1779 ;;		_lcd_chr_cp
  1780 ;;		_lcd_out
  1781 ;;		_lcd_chr
  1782 ;;		_lcd_out_cp
  1783 ;; This function uses a non-reentrant model
  1784 ;;
  1785                           
  1786     0512                     _LCD_Write_Char:	
  1787                           ;psect for function _LCD_Write_Char
  1788                           
  1789                           
  1790                           ;incstack = 0
  1791                           ; Regs used in _LCD_Write_Char: [wreg+status,2+status,0+pclath+cstack]
  1792                           ;LCD_Write_Char@Data stored from wreg
  1793     0512  00F5               	movwf	LCD_Write_Char@Data
  1794     0513                     l1145:
  1795                           
  1796                           ;lcd.c: 34: static void LCD_Write_Char(char Data);lcd.c: 35: {;lcd.c: 36:   char Low4,Hi
      +                          gh4;;lcd.c: 37:   Low4 = Data & 0x0F;
  1797     0513  0875               	movf	LCD_Write_Char@Data,w
  1798     0514  390F               	andlw	15
  1799     0515  00F3               	movwf	LCD_Write_Char@Low4
  1800                           
  1801                           ;lcd.c: 38:   High4 = Data & 0xF0;
  1802     0516  0875               	movf	LCD_Write_Char@Data,w
  1803     0517  39F0               	andlw	240
  1804     0518  00F4               	movwf	LCD_Write_Char@High4
  1805     0519                     l1147:
  1806                           
  1807                           ;lcd.c: 39:   RD0 = 1;
  1808     0519  1283               	bcf	3,5	;RP0=0, select bank0
  1809     051A  1303               	bcf	3,6	;RP1=0, select bank0
  1810     051B  1408               	bsf	8,0	;volatile
  1811     051C                     l1149:
  1812                           
  1813                           ;lcd.c: 40:   SET_LCD_DATA_PINS(High4>>4);
  1814     051C  0874               	movf	LCD_Write_Char@High4,w
  1815     051D  00F1               	movwf	??_LCD_Write_Char
  1816     051E  3004               	movlw	4
  1817     051F                     u615:
  1818     051F  1003               	clrc
  1819     0520  0CF1               	rrf	??_LCD_Write_Char,f
  1820     0521  3EFF               	addlw	-1
  1821     0522  1D03               	skipz
  1822     0523  2D1F               	goto	u615
  1823     0524  0871               	movf	??_LCD_Write_Char,w
  1824     0525  120A  118A  2478  120A  118A  	fcall	_SET_LCD_DATA_PINS
  1825     052A                     l1151:
  1826                           
  1827                           ;lcd.c: 41:   RD1 = 1;
  1828     052A  1283               	bcf	3,5	;RP0=0, select bank0
  1829     052B  1303               	bcf	3,6	;RP1=0, select bank0
  1830     052C  1488               	bsf	8,1	;volatile
  1831     052D                     l1153:
  1832                           
  1833                           ;lcd.c: 42:   _delay((unsigned long)((1800)*((8000000)/4000000.0)));
  1834     052D  3005               	movlw	5
  1835     052E  00F2               	movwf	??_LCD_Write_Char+1
  1836     052F  30AB               	movlw	171
  1837     0530  00F1               	movwf	??_LCD_Write_Char
  1838     0531                     u1157:
  1839     0531  0BF1               	decfsz	??_LCD_Write_Char,f
  1840     0532  2D31               	goto	u1157
  1841     0533  0BF2               	decfsz	??_LCD_Write_Char+1,f
  1842     0534  2D31               	goto	u1157
  1843     0535  2D36               	nop2
  1844     0536                     l1155:
  1845                           
  1846                           ;lcd.c: 43:   RD1 = 0;
  1847     0536  1283               	bcf	3,5	;RP0=0, select bank0
  1848     0537  1303               	bcf	3,6	;RP1=0, select bank0
  1849     0538  1088               	bcf	8,1	;volatile
  1850     0539                     l1157:
  1851                           
  1852                           ;lcd.c: 44:   _delay((unsigned long)((1800)*((8000000)/4000000.0)));
  1853     0539  3005               	movlw	5
  1854     053A  00F2               	movwf	??_LCD_Write_Char+1
  1855     053B  30AB               	movlw	171
  1856     053C  00F1               	movwf	??_LCD_Write_Char
  1857     053D                     u1167:
  1858     053D  0BF1               	decfsz	??_LCD_Write_Char,f
  1859     053E  2D3D               	goto	u1167
  1860     053F  0BF2               	decfsz	??_LCD_Write_Char+1,f
  1861     0540  2D3D               	goto	u1167
  1862     0541  2D42               	nop2
  1863     0542                     l1159:
  1864                           
  1865                           ;lcd.c: 45:   SET_LCD_DATA_PINS(Low4);
  1866     0542  0873               	movf	LCD_Write_Char@Low4,w
  1867     0543  120A  118A  2478  120A  118A  	fcall	_SET_LCD_DATA_PINS
  1868     0548                     l1161:
  1869                           
  1870                           ;lcd.c: 46:   RD1 = 1;
  1871     0548  1283               	bcf	3,5	;RP0=0, select bank0
  1872     0549  1303               	bcf	3,6	;RP1=0, select bank0
  1873     054A  1488               	bsf	8,1	;volatile
  1874     054B                     l1163:
  1875                           
  1876                           ;lcd.c: 47:   _delay((unsigned long)((1800)*((8000000)/4000000.0)));
  1877     054B  3005               	movlw	5
  1878     054C  00F2               	movwf	??_LCD_Write_Char+1
  1879     054D  30AB               	movlw	171
  1880     054E  00F1               	movwf	??_LCD_Write_Char
  1881     054F                     u1177:
  1882     054F  0BF1               	decfsz	??_LCD_Write_Char,f
  1883     0550  2D4F               	goto	u1177
  1884     0551  0BF2               	decfsz	??_LCD_Write_Char+1,f
  1885     0552  2D4F               	goto	u1177
  1886     0553  2D54               	nop2
  1887     0554                     l1165:
  1888                           
  1889                           ;lcd.c: 48:   RD1 = 0;
  1890     0554  1283               	bcf	3,5	;RP0=0, select bank0
  1891     0555  1303               	bcf	3,6	;RP1=0, select bank0
  1892     0556  1088               	bcf	8,1	;volatile
  1893     0557                     l1167:
  1894                           
  1895                           ;lcd.c: 49:   _delay((unsigned long)((1800)*((8000000)/4000000.0)));
  1896     0557  3005               	movlw	5
  1897     0558  00F2               	movwf	??_LCD_Write_Char+1
  1898     0559  30AB               	movlw	171
  1899     055A  00F1               	movwf	??_LCD_Write_Char
  1900     055B                     u1187:
  1901     055B  0BF1               	decfsz	??_LCD_Write_Char,f
  1902     055C  2D5B               	goto	u1187
  1903     055D  0BF2               	decfsz	??_LCD_Write_Char+1,f
  1904     055E  2D5B               	goto	u1187
  1905     055F  2D60               	nop2
  1906     0560                     l172:
  1907     0560  0008               	return
  1908     0561                     __end_of_LCD_Write_Char:
  1909                           
  1910                           	psect	text10
  1911     0478                     __ptext10:	
  1912 ;; *************** function _SET_LCD_DATA_PINS *****************
  1913 ;; Defined at:
  1914 ;;		line 3 in file "lcd.c"
  1915 ;; Parameters:    Size  Location     Type
  1916 ;;  Data            1    wreg     unsigned char 
  1917 ;; Auto vars:     Size  Location     Type
  1918 ;;  Data            1    0[COMMON] unsigned char 
  1919 ;; Return value:  Size  Location     Type
  1920 ;;                  1    wreg      void 
  1921 ;; Registers used:
  1922 ;;		wreg
  1923 ;; Tracked objects:
  1924 ;;		On entry : 0/0
  1925 ;;		On exit  : 0/0
  1926 ;;		Unchanged: 0/0
  1927 ;; Data sizes:     COMMON   BANK0   BANK1   BANK3   BANK2
  1928 ;;      Params:         0       0       0       0       0
  1929 ;;      Locals:         1       0       0       0       0
  1930 ;;      Temps:          0       0       0       0       0
  1931 ;;      Totals:         1       0       0       0       0
  1932 ;;Total ram usage:        1 bytes
  1933 ;; Hardware stack levels used: 1
  1934 ;; This function calls:
  1935 ;;		Nothing
  1936 ;; This function is called by:
  1937 ;;		_LCD_SEND_4BIT_CMD
  1938 ;;		_LCD_Write_Char
  1939 ;;		_lcd_init
  1940 ;; This function uses a non-reentrant model
  1941 ;;
  1942                           
  1943     0478                     _SET_LCD_DATA_PINS:	
  1944                           ;psect for function _SET_LCD_DATA_PINS
  1945                           
  1946                           
  1947                           ;incstack = 0
  1948                           ; Regs used in _SET_LCD_DATA_PINS: [wreg]
  1949                           ;SET_LCD_DATA_PINS@Data stored from wreg
  1950     0478  00F0               	movwf	SET_LCD_DATA_PINS@Data
  1951     0479                     l1105:
  1952                           
  1953                           ;lcd.c: 3: static void SET_LCD_DATA_PINS(unsigned char Data);lcd.c: 4: {;lcd.c: 5:   if(
      +                          Data & 1)
  1954     0479  1C70               	btfss	SET_LCD_DATA_PINS@Data,0
  1955     047A  2C7C               	goto	u531
  1956     047B  2C7D               	goto	u530
  1957     047C                     u531:
  1958     047C  2C81               	goto	l158
  1959     047D                     u530:
  1960     047D                     l1107:
  1961                           
  1962                           ;lcd.c: 6:     RD2 = 1;
  1963     047D  1283               	bcf	3,5	;RP0=0, select bank0
  1964     047E  1303               	bcf	3,6	;RP1=0, select bank0
  1965     047F  1508               	bsf	8,2	;volatile
  1966     0480  2C84               	goto	l159
  1967     0481                     l158:	
  1968                           ;lcd.c: 7:   else
  1969                           
  1970                           
  1971                           ;lcd.c: 8:     RD2 = 0;
  1972     0481  1283               	bcf	3,5	;RP0=0, select bank0
  1973     0482  1303               	bcf	3,6	;RP1=0, select bank0
  1974     0483  1108               	bcf	8,2	;volatile
  1975     0484                     l159:
  1976                           
  1977                           ;lcd.c: 9:   if(Data & 2)
  1978     0484  1CF0               	btfss	SET_LCD_DATA_PINS@Data,1
  1979     0485  2C87               	goto	u541
  1980     0486  2C88               	goto	u540
  1981     0487                     u541:
  1982     0487  2C8A               	goto	l160
  1983     0488                     u540:
  1984     0488                     l1109:
  1985                           
  1986                           ;lcd.c: 10:     RD3 = 1;
  1987     0488  1588               	bsf	8,3	;volatile
  1988     0489  2C8B               	goto	l161
  1989     048A                     l160:	
  1990                           ;lcd.c: 11:   else
  1991                           
  1992                           
  1993                           ;lcd.c: 12:     RD3 = 0;
  1994     048A  1188               	bcf	8,3	;volatile
  1995     048B                     l161:
  1996                           
  1997                           ;lcd.c: 13:   if(Data & 4)
  1998     048B  1D70               	btfss	SET_LCD_DATA_PINS@Data,2
  1999     048C  2C8E               	goto	u551
  2000     048D  2C8F               	goto	u550
  2001     048E                     u551:
  2002     048E  2C91               	goto	l162
  2003     048F                     u550:
  2004     048F                     l1111:
  2005                           
  2006                           ;lcd.c: 14:     RD4 = 1;
  2007     048F  1608               	bsf	8,4	;volatile
  2008     0490  2C92               	goto	l163
  2009     0491                     l162:	
  2010                           ;lcd.c: 15:   else
  2011                           
  2012                           
  2013                           ;lcd.c: 16:     RD4 = 0;
  2014     0491  1208               	bcf	8,4	;volatile
  2015     0492                     l163:
  2016                           
  2017                           ;lcd.c: 17:   if(Data & 8)
  2018     0492  1DF0               	btfss	SET_LCD_DATA_PINS@Data,3
  2019     0493  2C95               	goto	u561
  2020     0494  2C96               	goto	u560
  2021     0495                     u561:
  2022     0495  2C98               	goto	l164
  2023     0496                     u560:
  2024     0496                     l1113:
  2025                           
  2026                           ;lcd.c: 18:     RD5 = 1;
  2027     0496  1688               	bsf	8,5	;volatile
  2028     0497  2C99               	goto	l166
  2029     0498                     l164:	
  2030                           ;lcd.c: 19:   else
  2031                           
  2032                           
  2033                           ;lcd.c: 20:     RD5 = 0;
  2034     0498  1288               	bcf	8,5	;volatile
  2035     0499                     l166:
  2036     0499  0008               	return
  2037     049A                     __end_of_SET_LCD_DATA_PINS:
  2038                           
  2039                           	psect	text11
  2040     0652                     __ptext11:	
  2041 ;; *************** function _keypad_get_key *****************
  2042 ;; Defined at:
  2043 ;;		line 13 in file "keypad.c"
  2044 ;; Parameters:    Size  Location     Type
  2045 ;;		None
  2046 ;; Auto vars:     Size  Location     Type
  2047 ;;		None
  2048 ;; Return value:  Size  Location     Type
  2049 ;;                  1    wreg      unsigned char 
  2050 ;; Registers used:
  2051 ;;		wreg, status,2
  2052 ;; Tracked objects:
  2053 ;;		On entry : 0/0
  2054 ;;		On exit  : 0/0
  2055 ;;		Unchanged: 0/0
  2056 ;; Data sizes:     COMMON   BANK0   BANK1   BANK3   BANK2
  2057 ;;      Params:         0       0       0       0       0
  2058 ;;      Locals:         0       0       0       0       0
  2059 ;;      Temps:          0       0       0       0       0
  2060 ;;      Totals:         0       0       0       0       0
  2061 ;;Total ram usage:        0 bytes
  2062 ;; Hardware stack levels used: 1
  2063 ;; This function calls:
  2064 ;;		Nothing
  2065 ;; This function is called by:
  2066 ;;		_Get_Password
  2067 ;; This function uses a non-reentrant model
  2068 ;;
  2069                           
  2070     0652                     _keypad_get_key:	
  2071                           ;psect for function _keypad_get_key
  2072                           
  2073     0652                     l1181:	
  2074                           ;incstack = 0
  2075                           ; Regs used in _keypad_get_key: [wreg+status,2]
  2076                           
  2077                           
  2078                           ;keypad.c: 15:      PORTB = 0xFF;
  2079     0652  30FF               	movlw	255
  2080     0653  1283               	bcf	3,5	;RP0=0, select bank0
  2081     0654  1303               	bcf	3,6	;RP1=0, select bank0
  2082     0655  0086               	movwf	6	;volatile
  2083     0656                     l1183:
  2084                           
  2085                           ;keypad.c: 16:      (PORTB = PORTB & (~(1<<0))) ;
  2086     0656  0806               	movf	6,w	;volatile
  2087     0657  39FE               	andlw	254
  2088     0658  0086               	movwf	6	;volatile
  2089     0659                     l1185:
  2090                           
  2091                           ;keypad.c: 19:      if ((PORTB & (1<<4)?1:0) == 0 ){
  2092     0659  1A06               	btfsc	6,4	;volatile
  2093     065A  2E5C               	goto	u641
  2094     065B  2E5D               	goto	u640
  2095     065C                     u641:
  2096     065C  2E63               	goto	l53
  2097     065D                     u640:
  2098     065D                     l54:
  2099     065D  1E06               	btfss	6,4	;volatile
  2100     065E  2E60               	goto	u651
  2101     065F  2E61               	goto	u650
  2102     0660                     u651:
  2103     0660  2E5D               	goto	l54
  2104     0661                     u650:
  2105     0661                     l1189:
  2106                           
  2107                           ;keypad.c: 21:         return '7' ;
  2108     0661  3037               	movlw	55
  2109     0662  2F09               	goto	l57
  2110     0663                     l53:
  2111     0663  1A86               	btfsc	6,5	;volatile
  2112     0664  2E66               	goto	u661
  2113     0665  2E67               	goto	u660
  2114     0666                     u661:
  2115     0666  2E6D               	goto	l59
  2116     0667                     u660:
  2117     0667                     l60:
  2118     0667  1E86               	btfss	6,5	;volatile
  2119     0668  2E6A               	goto	u671
  2120     0669  2E6B               	goto	u670
  2121     066A                     u671:
  2122     066A  2E67               	goto	l60
  2123     066B                     u670:
  2124     066B                     l1197:
  2125                           
  2126                           ;keypad.c: 24:          return '8' ;
  2127     066B  3038               	movlw	56
  2128     066C  2F09               	goto	l57
  2129     066D                     l59:
  2130     066D  1B06               	btfsc	6,6	;volatile
  2131     066E  2E70               	goto	u681
  2132     066F  2E71               	goto	u680
  2133     0670                     u681:
  2134     0670  2E77               	goto	l64
  2135     0671                     u680:
  2136     0671                     l65:
  2137     0671  1F06               	btfss	6,6	;volatile
  2138     0672  2E74               	goto	u691
  2139     0673  2E75               	goto	u690
  2140     0674                     u691:
  2141     0674  2E71               	goto	l65
  2142     0675                     u690:
  2143     0675                     l1205:
  2144                           
  2145                           ;keypad.c: 27:          return '9' ;
  2146     0675  3039               	movlw	57
  2147     0676  2F09               	goto	l57
  2148     0677                     l64:
  2149     0677  1B86               	btfsc	6,7	;volatile
  2150     0678  2E7A               	goto	u701
  2151     0679  2E7B               	goto	u700
  2152     067A                     u701:
  2153     067A  2E81               	goto	l63
  2154     067B                     u700:
  2155     067B                     l70:
  2156     067B  1F86               	btfss	6,7	;volatile
  2157     067C  2E7E               	goto	u711
  2158     067D  2E7F               	goto	u710
  2159     067E                     u711:
  2160     067E  2E7B               	goto	l70
  2161     067F                     u710:
  2162     067F                     l1213:
  2163                           
  2164                           ;keypad.c: 30:          return '/' ;
  2165     067F  302F               	movlw	47
  2166     0680  2F09               	goto	l57
  2167     0681                     l63:
  2168     0681                     l1217:
  2169                           
  2170                           ;keypad.c: 33:      PORTB = 0xFF;
  2171     0681  30FF               	movlw	255
  2172     0682  0086               	movwf	6	;volatile
  2173     0683                     l1219:
  2174                           
  2175                           ;keypad.c: 34:      (PORTB = PORTB & (~(1<<1))) ;
  2176     0683  0806               	movf	6,w	;volatile
  2177     0684  39FD               	andlw	253
  2178     0685  0086               	movwf	6	;volatile
  2179     0686                     l1221:
  2180                           
  2181                           ;keypad.c: 37:      if ((PORTB & (1<<4)?1:0) == 0 ){
  2182     0686  1A06               	btfsc	6,4	;volatile
  2183     0687  2E89               	goto	u721
  2184     0688  2E8A               	goto	u720
  2185     0689                     u721:
  2186     0689  2E90               	goto	l73
  2187     068A                     u720:
  2188     068A                     l74:
  2189     068A  1E06               	btfss	6,4	;volatile
  2190     068B  2E8D               	goto	u731
  2191     068C  2E8E               	goto	u730
  2192     068D                     u731:
  2193     068D  2E8A               	goto	l74
  2194     068E                     u730:
  2195     068E                     l1225:
  2196                           
  2197                           ;keypad.c: 39:         return '4' ;
  2198     068E  3034               	movlw	52
  2199     068F  2F09               	goto	l57
  2200     0690                     l73:
  2201     0690  1A86               	btfsc	6,5	;volatile
  2202     0691  2E93               	goto	u741
  2203     0692  2E94               	goto	u740
  2204     0693                     u741:
  2205     0693  2E9A               	goto	l78
  2206     0694                     u740:
  2207     0694                     l79:
  2208     0694  1E86               	btfss	6,5	;volatile
  2209     0695  2E97               	goto	u751
  2210     0696  2E98               	goto	u750
  2211     0697                     u751:
  2212     0697  2E94               	goto	l79
  2213     0698                     u750:
  2214     0698                     l1233:
  2215                           
  2216                           ;keypad.c: 42:          return '5' ;
  2217     0698  3035               	movlw	53
  2218     0699  2F09               	goto	l57
  2219     069A                     l78:
  2220     069A  1B06               	btfsc	6,6	;volatile
  2221     069B  2E9D               	goto	u761
  2222     069C  2E9E               	goto	u760
  2223     069D                     u761:
  2224     069D  2EA4               	goto	l83
  2225     069E                     u760:
  2226     069E                     l84:
  2227     069E  1F06               	btfss	6,6	;volatile
  2228     069F  2EA1               	goto	u771
  2229     06A0  2EA2               	goto	u770
  2230     06A1                     u771:
  2231     06A1  2E9E               	goto	l84
  2232     06A2                     u770:
  2233     06A2                     l1241:
  2234                           
  2235                           ;keypad.c: 45:          return '6' ;
  2236     06A2  3036               	movlw	54
  2237     06A3  2F09               	goto	l57
  2238     06A4                     l83:
  2239     06A4  1B86               	btfsc	6,7	;volatile
  2240     06A5  2EA7               	goto	u781
  2241     06A6  2EA8               	goto	u780
  2242     06A7                     u781:
  2243     06A7  2EAE               	goto	l82
  2244     06A8                     u780:
  2245     06A8                     l89:
  2246     06A8  1F86               	btfss	6,7	;volatile
  2247     06A9  2EAB               	goto	u791
  2248     06AA  2EAC               	goto	u790
  2249     06AB                     u791:
  2250     06AB  2EA8               	goto	l89
  2251     06AC                     u790:
  2252     06AC                     l1249:
  2253                           
  2254                           ;keypad.c: 48:          return '*' ;
  2255     06AC  302A               	movlw	42
  2256     06AD  2F09               	goto	l57
  2257     06AE                     l82:
  2258     06AE                     l1253:
  2259                           
  2260                           ;keypad.c: 51:      PORTB = 0xFF;
  2261     06AE  30FF               	movlw	255
  2262     06AF  0086               	movwf	6	;volatile
  2263     06B0                     l1255:
  2264                           
  2265                           ;keypad.c: 52:      (PORTB = PORTB & (~(1<<2))) ;
  2266     06B0  0806               	movf	6,w	;volatile
  2267     06B1  39FB               	andlw	251
  2268     06B2  0086               	movwf	6	;volatile
  2269     06B3                     l1257:
  2270                           
  2271                           ;keypad.c: 55:       if ((PORTB & (1<<4)?1:0) == 0 ){
  2272     06B3  1A06               	btfsc	6,4	;volatile
  2273     06B4  2EB6               	goto	u801
  2274     06B5  2EB7               	goto	u800
  2275     06B6                     u801:
  2276     06B6  2EBD               	goto	l92
  2277     06B7                     u800:
  2278     06B7                     l93:
  2279     06B7  1E06               	btfss	6,4	;volatile
  2280     06B8  2EBA               	goto	u811
  2281     06B9  2EBB               	goto	u810
  2282     06BA                     u811:
  2283     06BA  2EB7               	goto	l93
  2284     06BB                     u810:
  2285     06BB                     l1261:
  2286                           
  2287                           ;keypad.c: 57:         return '1' ;
  2288     06BB  3031               	movlw	49
  2289     06BC  2F09               	goto	l57
  2290     06BD                     l92:
  2291     06BD  1A86               	btfsc	6,5	;volatile
  2292     06BE  2EC0               	goto	u821
  2293     06BF  2EC1               	goto	u820
  2294     06C0                     u821:
  2295     06C0  2EC7               	goto	l97
  2296     06C1                     u820:
  2297     06C1                     l98:
  2298     06C1  1E86               	btfss	6,5	;volatile
  2299     06C2  2EC4               	goto	u831
  2300     06C3  2EC5               	goto	u830
  2301     06C4                     u831:
  2302     06C4  2EC1               	goto	l98
  2303     06C5                     u830:
  2304     06C5                     l1269:
  2305                           
  2306                           ;keypad.c: 60:          return '2' ;
  2307     06C5  3032               	movlw	50
  2308     06C6  2F09               	goto	l57
  2309     06C7                     l97:
  2310     06C7  1B06               	btfsc	6,6	;volatile
  2311     06C8  2ECA               	goto	u841
  2312     06C9  2ECB               	goto	u840
  2313     06CA                     u841:
  2314     06CA  2ED1               	goto	l102
  2315     06CB                     u840:
  2316     06CB                     l103:
  2317     06CB  1F06               	btfss	6,6	;volatile
  2318     06CC  2ECE               	goto	u851
  2319     06CD  2ECF               	goto	u850
  2320     06CE                     u851:
  2321     06CE  2ECB               	goto	l103
  2322     06CF                     u850:
  2323     06CF                     l1277:
  2324                           
  2325                           ;keypad.c: 63:          return '3' ;
  2326     06CF  3033               	movlw	51
  2327     06D0  2F09               	goto	l57
  2328     06D1                     l102:
  2329     06D1  1B86               	btfsc	6,7	;volatile
  2330     06D2  2ED4               	goto	u861
  2331     06D3  2ED5               	goto	u860
  2332     06D4                     u861:
  2333     06D4  2EDB               	goto	l101
  2334     06D5                     u860:
  2335     06D5                     l108:
  2336     06D5  1F86               	btfss	6,7	;volatile
  2337     06D6  2ED8               	goto	u871
  2338     06D7  2ED9               	goto	u870
  2339     06D8                     u871:
  2340     06D8  2ED5               	goto	l108
  2341     06D9                     u870:
  2342     06D9                     l1285:
  2343                           
  2344                           ;keypad.c: 66:          return '-' ;
  2345     06D9  302D               	movlw	45
  2346     06DA  2F09               	goto	l57
  2347     06DB                     l101:
  2348     06DB                     l1289:
  2349                           
  2350                           ;keypad.c: 69:      PORTB = 0xFF;
  2351     06DB  30FF               	movlw	255
  2352     06DC  0086               	movwf	6	;volatile
  2353     06DD                     l1291:
  2354                           
  2355                           ;keypad.c: 70:      (PORTB = PORTB & (~(1<<3))) ;
  2356     06DD  0806               	movf	6,w	;volatile
  2357     06DE  39F7               	andlw	247
  2358     06DF  0086               	movwf	6	;volatile
  2359     06E0                     l1293:
  2360                           
  2361                           ;keypad.c: 73:      if ((PORTB & (1<<4)?1:0) == 0 ){
  2362     06E0  1A06               	btfsc	6,4	;volatile
  2363     06E1  2EE3               	goto	u881
  2364     06E2  2EE4               	goto	u880
  2365     06E3                     u881:
  2366     06E3  2EEA               	goto	l111
  2367     06E4                     u880:
  2368     06E4                     l112:
  2369     06E4  1E06               	btfss	6,4	;volatile
  2370     06E5  2EE7               	goto	u891
  2371     06E6  2EE8               	goto	u890
  2372     06E7                     u891:
  2373     06E7  2EE4               	goto	l112
  2374     06E8                     u890:
  2375     06E8                     l1297:
  2376                           
  2377                           ;keypad.c: 75:         return 'c' ;
  2378     06E8  3063               	movlw	99
  2379     06E9  2F09               	goto	l57
  2380     06EA                     l111:
  2381     06EA  1A86               	btfsc	6,5	;volatile
  2382     06EB  2EED               	goto	u901
  2383     06EC  2EEE               	goto	u900
  2384     06ED                     u901:
  2385     06ED  2EF4               	goto	l116
  2386     06EE                     u900:
  2387     06EE                     l117:
  2388     06EE  1E86               	btfss	6,5	;volatile
  2389     06EF  2EF1               	goto	u911
  2390     06F0  2EF2               	goto	u910
  2391     06F1                     u911:
  2392     06F1  2EEE               	goto	l117
  2393     06F2                     u910:
  2394     06F2                     l1305:
  2395                           
  2396                           ;keypad.c: 78:          return '0' ;
  2397     06F2  3030               	movlw	48
  2398     06F3  2F09               	goto	l57
  2399     06F4                     l116:
  2400     06F4  1B06               	btfsc	6,6	;volatile
  2401     06F5  2EF7               	goto	u921
  2402     06F6  2EF8               	goto	u920
  2403     06F7                     u921:
  2404     06F7  2EFE               	goto	l121
  2405     06F8                     u920:
  2406     06F8                     l122:
  2407     06F8  1F06               	btfss	6,6	;volatile
  2408     06F9  2EFB               	goto	u931
  2409     06FA  2EFC               	goto	u930
  2410     06FB                     u931:
  2411     06FB  2EF8               	goto	l122
  2412     06FC                     u930:
  2413     06FC                     l1313:
  2414                           
  2415                           ;keypad.c: 81:          return '=' ;
  2416     06FC  303D               	movlw	61
  2417     06FD  2F09               	goto	l57
  2418     06FE                     l121:
  2419     06FE  1B86               	btfsc	6,7	;volatile
  2420     06FF  2F01               	goto	u941
  2421     0700  2F02               	goto	u940
  2422     0701                     u941:
  2423     0701  2F08               	goto	l120
  2424     0702                     u940:
  2425     0702                     l127:
  2426     0702  1F86               	btfss	6,7	;volatile
  2427     0703  2F05               	goto	u951
  2428     0704  2F06               	goto	u950
  2429     0705                     u951:
  2430     0705  2F02               	goto	l127
  2431     0706                     u950:
  2432     0706                     l1321:
  2433                           
  2434                           ;keypad.c: 84:          return '+' ;
  2435     0706  302B               	movlw	43
  2436     0707  2F09               	goto	l57
  2437     0708                     l120:
  2438     0708                     l1325:
  2439                           
  2440                           ;keypad.c: 86:      return '\0' ;
  2441     0708  3000               	movlw	0
  2442     0709                     l57:
  2443     0709  0008               	return
  2444     070A                     __end_of_keypad_get_key:
  2445     007E                     btemp	set	126	;btemp
  2446     007E                     wtemp0	set	126

Data Sizes:
    Strings     61
    Constant    0
    Data        0
    BSS         0
    Persistent  0
    Stack       0

Auto Spaces:
    Space          Size  Autos    Used
    COMMON           14     12      12
    BANK0            80     17      17
    BANK1            80      0       0
    BANK3            96      0       0
    BANK2            96      0       0

Pointer List with Targets:

    lcd_out@str	PTR unsigned char  size(1) Largest target is 19
		 -> STR_1(CODE[19]), STR_2(CODE[13]), STR_3(CODE[15]), STR_4(CODE[6]), 
		 -> STR_5(CODE[8]), 


Critical Paths under _main in COMMON

    _main->_lcd_out
    _lcd_init->_LCD_SEND_4BIT_CMD
    _Get_Password->_lcd_out
    _lcd_out->_lcd_set_cursor
    _lcd_set_cursor->_LCD_SEND_4BIT_CMD
    _lcd_cmd->_LCD_SEND_4BIT_CMD
    _LCD_SEND_4BIT_CMD->_SET_LCD_DATA_PINS
    _lcd_chr_cp->_LCD_Write_Char
    _LCD_Write_Char->_SET_LCD_DATA_PINS

Critical Paths under _main in BANK0

    _main->_Get_Password
    _Get_Password->_lcd_out

Critical Paths under _main in BANK1

    None.

Critical Paths under _main in BANK3

    None.

Critical Paths under _main in BANK2

    None.

Call Graph Tables:

 ---------------------------------------------------------------------------------
 (Depth) Function   	        Calls       Base Space   Used Autos Params    Refs
 ---------------------------------------------------------------------------------
 (0) _main                                                 6     6      0    4950
                                             11 BANK0      6     6      0
                       _Get_Password
                        _keypad_init
                            _lcd_cmd
                           _lcd_init
                            _lcd_out
 ---------------------------------------------------------------------------------
 (1) _lcd_init                                             2     2      0     198
                                              4 COMMON     2     2      0
                  _LCD_SEND_4BIT_CMD
                  _SET_LCD_DATA_PINS
 ---------------------------------------------------------------------------------
 (1) _keypad_init                                          0     0      0       0
 ---------------------------------------------------------------------------------
 (1) _Get_Password                                         8     8      0    2802
                                              3 BANK0      8     8      0
                     _keypad_get_key
                         _lcd_chr_cp
                            _lcd_cmd
                            _lcd_out
                     _lcd_set_cursor
 ---------------------------------------------------------------------------------
 (1) _lcd_out                                              5     3      2    1680
                                             10 COMMON     2     0      2
                                              0 BANK0      3     3      0
                     _LCD_Write_Char
                     _lcd_set_cursor
 ---------------------------------------------------------------------------------
 (2) _lcd_set_cursor                                       6     5      1     608
                                              4 COMMON     6     5      1
                  _LCD_SEND_4BIT_CMD
 ---------------------------------------------------------------------------------
 (1) _lcd_cmd                                              2     2      0     154
                                              4 COMMON     2     2      0
                  _LCD_SEND_4BIT_CMD
 ---------------------------------------------------------------------------------
 (3) _LCD_SEND_4BIT_CMD                                    3     3      0     110
                                              1 COMMON     3     3      0
                  _SET_LCD_DATA_PINS
 ---------------------------------------------------------------------------------
 (2) _lcd_chr_cp                                           1     1      0     200
                                              6 COMMON     1     1      0
                     _LCD_Write_Char
 ---------------------------------------------------------------------------------
 (2) _LCD_Write_Char                                       5     5      0     178
                                              1 COMMON     5     5      0
                  _SET_LCD_DATA_PINS
 ---------------------------------------------------------------------------------
 (4) _SET_LCD_DATA_PINS                                    1     1      0      88
                                              0 COMMON     1     1      0
 ---------------------------------------------------------------------------------
 (2) _keypad_get_key                                       0     0      0       0
 ---------------------------------------------------------------------------------
 Estimated maximum stack depth 4
 ---------------------------------------------------------------------------------

 Call Graph Graphs:

 _main (ROOT)
   _Get_Password
     _keypad_get_key
     _lcd_chr_cp
       _LCD_Write_Char
         _SET_LCD_DATA_PINS
     _lcd_cmd
       _LCD_SEND_4BIT_CMD
         _SET_LCD_DATA_PINS
     _lcd_out
       _LCD_Write_Char
       _lcd_set_cursor
         _LCD_SEND_4BIT_CMD
     _lcd_set_cursor
   _keypad_init
   _lcd_cmd
   _lcd_init
     _LCD_SEND_4BIT_CMD
     _SET_LCD_DATA_PINS
   _lcd_out

 Address spaces:
Name               Size   Autos  Total    Cost      Usage
BITCOMMON            E      0       0       0        0.0%
EEDATA             100      0       0       0        0.0%
NULL                 0      0       0       0        0.0%
CODE                 0      0       0       0        0.0%
COMMON               E      C       C       1       85.7%
BITSFR0              0      0       0       1        0.0%
SFR0                 0      0       0       1        0.0%
BITSFR1              0      0       0       2        0.0%
SFR1                 0      0       0       2        0.0%
STACK                0      0       0       2        0.0%
ABS                  0      0       0       3        0.0%
BITBANK0            50      0       0       4        0.0%
BITSFR3              0      0       0       4        0.0%
SFR3                 0      0       0       4        0.0%
BANK0               50     11      11       5       21.2%
BITSFR2              0      0       0       5        0.0%
SFR2                 0      0       0       5        0.0%
BITBANK1            50      0       0       6        0.0%
BANK1               50      0       0       7        0.0%
BITBANK3            60      0       0       8        0.0%
BANK3               60      0       0       9        0.0%
BITBANK2            60      0       0      10        0.0%
BANK2               60      0       0      11        0.0%
DATA                 0      0       0      12        0.0%


Microchip Technology PIC Macro Assembler V2.46 build 20240104201356 
Symbol Table                                                                                   Wed Apr 17 19:16:54 2024

                        pc 0002                         l24 0625                         l25 0651  
                       l50 0445                         l60 0667                         l53 0663  
                       l70 067B                         l54 065D                         l63 0681  
                       l64 0677                         l73 0690                         l65 0671  
                       l57 0709                         l82 06AE                         l74 068A  
                       l83 06A4                         l59 066D                         l92 06BD  
                       l84 069E                         l93 06B7                         l78 069A  
                       l79 0694                         l97 06C7                         l89 06A8  
                       l98 06C1                         fsr 0004                        l101 06DB  
                      l102 06D1                        l111 06EA                        l103 06CB  
                      l120 0708                        l112 06E4                        l121 06FE  
                      l122 06F8                        l116 06F4                        l108 06D5  
                      l117 06EE                        l127 0702                        l160 048A  
                      l161 048B                        l162 0491                        l163 0492  
                      l164 0498                        l172 0560             lcd_cmd@command 0075  
                      l166 0499                        l158 0481                        l159 0484  
                      l183 0511                        l175 05CA                        l169 0477  
                      l178 045D                        l195 04CC                        l189 0437  
                      _RD0 0040                        _RD1 0041                        _RD2 0042  
                      _RD3 0043                        _RD4 0044                        _RD5 0045  
                      u530 047D                        u531 047C                        u700 067B  
                      u540 0488                        u701 067A                        u541 0487  
                      u605 04FB                        u710 067F                        u550 048F  
                      u630 04CC                        u711 067E                        u551 048E  
                      u615 051F                        u631 04CB                        u800 06B7  
                      u720 068A                        u640 065D                        u560 0496  
                      u801 06B6                        u721 0689                        u641 065C  
                      u561 0495                        u625 044A                        u810 06BB  
                      u730 068E                        u650 0661                        u570 04D3  
                      u811 06BA                        u731 068D                        u651 0660  
                      u571 04D2                        u900 06EE                        u820 06C1  
                      u740 0694                        u660 0667                        u901 06ED  
                      u821 06C0                        u741 0693                        u661 0666  
                      u910 06F2                        u830 06C5                        u750 0698  
                      u670 066B                        u590 04F5                        u911 06F1  
                      u831 06C4                        u751 0697                        u671 066A  
                      u591 04F4                        u920 06F8                        u840 06CB  
                      u760 069E                        u680 0671                        u921 06F7  
                      u841 06CA                        u761 069D                        u681 0670  
                      u585 04D9                        u930 06FC                        u850 06CF  
                      u770 06A2                        u690 0675                        u931 06FB  
                      u851 06CE                        u771 06A1                        u691 0674  
                      u940 0702                        u860 06D5                        u780 06A8  
                      u941 0701                        u861 06D4                        u781 06A7  
                      u950 0706                        u870 06D9                        u790 06AC  
                      u951 0705                        u871 06D8                        u791 06AB  
                      u880 06E4                        u960 0608                        u881 06E3  
                      u961 0607                        u890 06E8                        u970 061F  
                      u891 06E7                        u971 061E                        u980 0638  
                      u981 0637                        u990 0650                        u991 064E  
                      u985 0634                        fsr0 0004            ?_lcd_set_cursor 0074  
                     l1111 048F                       l1113 0496                       l1105 0479  
                     l1121 046B                       l1107 047D                       l1123 0474  
                     l1115 045F                       l1131 04E3                       l1221 0686  
                     l1213 067F                       l1205 0675                       l1109 0488  
                     l1117 0462                       l1141 0505                       l1133 04E9  
                     l1125 04CE                       l1151 052A                       l1119 0468  
                     l1143 050B                       l1127 04D3                       l1135 04EF  
                     l1321 0706                       l1313 06FC                       l1305 06F2  
                     l1241 06A2                       l1233 0698                       l1225 068E  
                     l1217 0681                       l1161 0548                       l1153 052D  
                     l1145 0513                       l1137 04F5                       l1129 04E0  
                     l1401 070A                       l1219 0683                       l1163 054B  
                     l1155 0536                       l1147 0519                       l1139 0502  
                     l1171 049D                       l1331 05CB                       l1411 0747  
                     l1403 0726                       l1325 0708                       l1261 06BB  
                     l1253 06AE                       l1181 0652                       l1165 0554  
                     l1157 0539                       l1149 051C                       l1173 04A5  
                     l1341 05EB                       l1333 05CF                       l1421 0778  
                     l1405 0730                       l1255 06B0                       l1183 0656  
                     l1167 0557                       l1159 0542                       l1175 04AA  
                     l1351 05FB                       l1343 05F3                       l1335 05D5  
                     l1423 078A                       l1415 074D                       l1407 073F  
                     l1257 06B3                       l1249 06AC                       l1185 0659  
                     l1329 0431                       l1169 0447                       l1177 04B7  
                     l1361 062B                       l1353 0603                       l1337 05DB  
                     l1441 07CB                       l1433 07A2                       l1425 0794  
                     l1417 075F                       l1409 073F                       l1291 06DD  
                     l1179 04BF                       l1363 0638                       l1355 0608  
                     l1339 05E1                       l1371 0569                       l1451 07E3  
                     l1435 07A8                       l1427 079E                       l1419 0769  
                     l1293 06E0                       l1285 06D9                       l1277 06CF  
                     l1269 06C5                       l1197 066B                       l1189 0661  
                     l1365 0647                       l1357 060E                       l1349 05F7  
                     l1381 059A                       l1373 056F                       l1453 07EB  
                     l1437 07B6                       l1359 061F                       l1391 05B8  
                     l1383 05A0                       l1375 0577                       l1447 07CF  
                     l1439 07BE                       l1297 06E8                       l1289 06DB  
                     l1393 05BE                       l1385 05A6                       l1377 0586  
                     l1369 0561                       l1449 07D5                       l1395 05C4  
                     l1387 05AC                       l1379 058F                       l1397 0438  
                     l1389 05B2                       l1399 0440                       STR_1 0009  
                     STR_2 002B                       STR_3 001C                       STR_4 0040  
                     STR_5 0038                       u1000 0651                       u1010 074C  
                     u1011 074B                       u1020 07CB                       u1021 07CA  
                     u1030 07F8                       u1031 07F7                       u1025 07C7  
                     u1107 057B                       u1035 07F4                       u1117 058A  
                     u1127 0597                       u1137 0640                       u1057 0738  
                     u1147 046F                       u1067 0771                       u1157 0531  
                     u1077 07B0                       u1167 053D                       u1087 07DD  
                     u1177 054F                       u1097 0573                       u1187 055B  
            lcd_chr_cp@chr 0076                       _main 070A                       btemp 007E  
                     start 0000                      ?_main 0070       __end_of_Get_Password 0652  
                    _PORTB 0006                      _TRISB 0086           ??_keypad_get_key 0070  
          __end_of_lcd_cmd 045E            __end_of_lcd_out 04CD               ?_keypad_init 0070  
                    main@i 002F                      pclath 000A                      status 0003  
                    wtemp0 007E             _LCD_Write_Char 0512            __initialization 07FC  
             __end_of_main 07FC                     ??_main 002B                     _TRISD0 0440  
                   _TRISD1 0441                     _TRISD2 0442                     _TRISD3 0443  
                   _TRISD4 0444                     _TRISD5 0445     __end_of_LCD_Write_Char 0561  
         __end_of_lcd_init 05CB                  ??_lcd_cmd 0074                  ??_lcd_out 007C  
  __end_of__initialization 07FC            ?_LCD_Write_Char 0070          _LCD_SEND_4BIT_CMD 045E  
           __pcstackCOMMON 0070         ?_LCD_SEND_4BIT_CMD 0070           ??_lcd_set_cursor 0075  
      ??_LCD_SEND_4BIT_CMD 0071               _Get_Password 05CB  __end_of_LCD_SEND_4BIT_CMD 0478  
               __pmaintext 070A                 _lcd_chr_cp 0430                  ?_lcd_init 0070  
               __stringtab 0003                    __ptext1 0561                    __ptext2 0438  
                  __ptext3 05CB                    __ptext4 049A                    __ptext5 04CD  
                  __ptext6 0446                    __ptext7 045E                    __ptext8 0430  
                  __ptext9 0512                    _lcd_cmd 0446                    _lcd_out 049A  
               ??_lcd_init 0074       end_of_initialization 07FC           Get_Password@pass 002A  
              ?_lcd_chr_cp 0070           ??_LCD_Write_Char 0071                 lcd_out@col 007A  
               lcd_out@row 0020                 lcd_out@str 007B              Get_Password@i 0028  
      start_initialization 07FC                  ___latbits 0002              __pcstackBANK0 0020  
            ??_keypad_init 0070        lcd_set_cursor@High4 0078                  __pstrings 0003  
                 ?_lcd_cmd 0070                   ?_lcd_out 007A          _SET_LCD_DATA_PINS 0478  
           _keypad_get_key 0652         ?_SET_LCD_DATA_PINS 0070        __end_of_keypad_init 0446  
          lcd_set_cursor@c 0074            lcd_set_cursor@r 0076        ??_SET_LCD_DATA_PINS 0070  
              __stringbase 0008               ??_lcd_chr_cp 0076  __end_of_SET_LCD_DATA_PINS 049A  
   __end_of_keypad_get_key 070A        LCD_Write_Char@High4 0074         __end_of_lcd_chr_cp 0438  
       __end_of__stringtab 0009         lcd_set_cursor@Low4 0077         lcd_set_cursor@Temp 0079  
     LCD_SEND_4BIT_CMD@CMD 0073                   __ptext10 0478                   __ptext11 0652  
              _keypad_init 0438                   _lcd_init 0561            ?_keypad_get_key 0070  
            ?_Get_Password 0070                   main@flag 002E                   lcd_out@i 0021  
       LCD_Write_Char@Data 0075         LCD_Write_Char@Low4 0073             _lcd_set_cursor 04CD  
           ??_Get_Password 0023                  stringcode 0003                 _OPTION_REG 0081  
                 stringdir 0003                   stringtab 0003     __end_of_lcd_set_cursor 0512  
        Get_Password@state 0026      SET_LCD_DATA_PINS@Data 0070  
