

Microchip MPLAB XC8 Assembler V2.46 build 20240104201356 
                                                                                               Wed Apr 17 17:12:43 2024

Microchip MPLAB XC8 C Compiler v2.46 (Free license) build 20240104201356 Og1 
     1                           	processor	16F877A
     2                           	pagewidth 120
     3                           	opt	flic
     4                           	psect	cinit,global,class=CODE,merge=1,delta=2
     5                           	psect	cstackCOMMON,global,class=COMMON,space=1,delta=1,noexec
     6                           	psect	cstackBANK0,global,class=BANK0,space=1,delta=1,noexec
     7                           	psect	maintext,global,class=CODE,split=1,delta=2
     8                           	psect	text1,local,class=CODE,merge=1,delta=2
     9                           	psect	text2,local,class=CODE,merge=1,delta=2
    10                           	psect	text3,local,class=CODE,merge=1,delta=2
    11                           	psect	text4,local,class=CODE,merge=1,delta=2,group=1
    12                           	psect	text5,local,class=CODE,merge=1,delta=2,group=1
    13                           	dabs	1,0x7E,2
    14     0000                     
    15                           ; Generated 12/10/2023 GMT
    16                           ; 
    17                           ; Copyright © 2023, Microchip Technology Inc. and its subsidiaries ("Microchip")
    18                           ; All rights reserved.
    19                           ; 
    20                           ; This software is developed by Microchip Technology Inc. and its subsidiaries ("Microch
      +                          ip").
    21                           ; 
    22                           ; Redistribution and use in source and binary forms, with or without modification, are
    23                           ; permitted provided that the following conditions are met:
    24                           ; 
    25                           ;     1. Redistributions of source code must retain the above copyright notice, this lis
      +                          t of
    26                           ;        conditions and the following disclaimer.
    27                           ; 
    28                           ;     2. Redistributions in binary form must reproduce the above copyright notice, this 
      +                          list
    29                           ;        of conditions and the following disclaimer in the documentation and/or other
    30                           ;        materials provided with the distribution. Publication is not required when
    31                           ;        this file is used in an embedded application.
    32                           ; 
    33                           ;     3. Microchip's name may not be used to endorse or promote products derived from th
      +                          is
    34                           ;        software without specific prior written permission.
    35                           ; 
    36                           ; THIS SOFTWARE IS PROVIDED BY MICROCHIP "AS IS" AND ANY EXPRESS OR IMPLIED WARRANTIES,
    37                           ; INCLUDING, BUT NOT LIMITED TO, THE IMPLIED WARRANTIES OF MERCHANTABILITY AND FITNESS F
      +                          OR
    38                           ; PURPOSE ARE DISCLAIMED.  IN NO EVENT SHALL MICROCHIP BE LIABLE FOR ANY DIRECT, INDIREC
      +                          T,
    39                           ; INCIDENTAL, SPECIAL, EXEMPLARY, OR CONSEQUENTIAL DAMAGES (INCLUDING BUT NOT LIMITED TO
    40                           ; PROCUREMENT OF SUBSTITUTE GOODS OR SERVICES; LOSS OF USE, DATA OR PROFITS; OR BUSINESS
    41                           ; INTERRUPTION) HOWSOEVER CAUSED AND ON ANY THEORY OF LIABILITY, WHETHER IN CONTRACT, ST
      +                          RICT
    42                           ; LIABILITY, OR TORT (INCLUDING NEGLIGENCE OR OTHERWISE) ARISING IN ANY WAY OUT OF THE U
      +                          SE OF
    43                           ; THIS SOFTWARE, EVEN IF ADVISED OF THE POSSIBILITY OF SUCH DAMAGE.
    44                           ; 
    45                           ; 
    46                           ; Code-generator required, PIC16F877A Definitions
    47                           ; 
    48                           ; SFR Addresses
    49     0000                     	;# 
    50     0001                     	;# 
    51     0002                     	;# 
    52     0003                     	;# 
    53     0004                     	;# 
    54     0005                     	;# 
    55     0006                     	;# 
    56     0007                     	;# 
    57     0008                     	;# 
    58     0009                     	;# 
    59     000A                     	;# 
    60     000B                     	;# 
    61     000C                     	;# 
    62     000D                     	;# 
    63     000E                     	;# 
    64     000E                     	;# 
    65     000F                     	;# 
    66     0010                     	;# 
    67     0011                     	;# 
    68     0012                     	;# 
    69     0013                     	;# 
    70     0014                     	;# 
    71     0015                     	;# 
    72     0015                     	;# 
    73     0016                     	;# 
    74     0017                     	;# 
    75     0018                     	;# 
    76     0019                     	;# 
    77     001A                     	;# 
    78     001B                     	;# 
    79     001B                     	;# 
    80     001C                     	;# 
    81     001D                     	;# 
    82     001E                     	;# 
    83     001F                     	;# 
    84     0081                     	;# 
    85     0085                     	;# 
    86     0086                     	;# 
    87     0087                     	;# 
    88     0088                     	;# 
    89     0089                     	;# 
    90     008C                     	;# 
    91     008D                     	;# 
    92     008E                     	;# 
    93     0091                     	;# 
    94     0092                     	;# 
    95     0093                     	;# 
    96     0094                     	;# 
    97     0098                     	;# 
    98     0099                     	;# 
    99     009C                     	;# 
   100     009D                     	;# 
   101     009E                     	;# 
   102     009F                     	;# 
   103     010C                     	;# 
   104     010D                     	;# 
   105     010E                     	;# 
   106     010F                     	;# 
   107     018C                     	;# 
   108     018D                     	;# 
   109     0000                     	;# 
   110     0001                     	;# 
   111     0002                     	;# 
   112     0003                     	;# 
   113     0004                     	;# 
   114     0005                     	;# 
   115     0006                     	;# 
   116     0007                     	;# 
   117     0008                     	;# 
   118     0009                     	;# 
   119     000A                     	;# 
   120     000B                     	;# 
   121     000C                     	;# 
   122     000D                     	;# 
   123     000E                     	;# 
   124     000E                     	;# 
   125     000F                     	;# 
   126     0010                     	;# 
   127     0011                     	;# 
   128     0012                     	;# 
   129     0013                     	;# 
   130     0014                     	;# 
   131     0015                     	;# 
   132     0015                     	;# 
   133     0016                     	;# 
   134     0017                     	;# 
   135     0018                     	;# 
   136     0019                     	;# 
   137     001A                     	;# 
   138     001B                     	;# 
   139     001B                     	;# 
   140     001C                     	;# 
   141     001D                     	;# 
   142     001E                     	;# 
   143     001F                     	;# 
   144     0081                     	;# 
   145     0085                     	;# 
   146     0086                     	;# 
   147     0087                     	;# 
   148     0088                     	;# 
   149     0089                     	;# 
   150     008C                     	;# 
   151     008D                     	;# 
   152     008E                     	;# 
   153     0091                     	;# 
   154     0092                     	;# 
   155     0093                     	;# 
   156     0094                     	;# 
   157     0098                     	;# 
   158     0099                     	;# 
   159     009C                     	;# 
   160     009D                     	;# 
   161     009E                     	;# 
   162     009F                     	;# 
   163     010C                     	;# 
   164     010D                     	;# 
   165     010E                     	;# 
   166     010F                     	;# 
   167     018C                     	;# 
   168     018D                     	;# 
   169     0006                     _PORTBbits	set	6
   170     0008                     _PORTDbits	set	8
   171     0008                     _PORTD	set	8
   172     0007                     _PORTCbits	set	7
   173     0007                     _PORTC	set	7
   174     0088                     _TRISD	set	136
   175     0087                     _TRISC	set	135
   176     0081                     _OPTION_REGbits	set	129
   177     0086                     _TRISB	set	134
   178                           
   179                           	psect	cinit
   180     07FC                     start_initialization:	
   181                           ; #config settings
   182                           
   183     07FC                     __initialization:
   184     07FC                     end_of_initialization:	
   185                           ;End of C runtime variable initialization code
   186                           
   187     07FC                     __end_of__initialization:
   188     07FC  0183               	clrf	3
   189     07FD  120A  118A  2DD8   	ljmp	_main	;jump to C main() function
   190                           
   191                           	psect	cstackCOMMON
   192     0070                     __pcstackCOMMON:
   193     0070                     ?_Team1_Display:
   194     0070                     ?_Team2_Display:	
   195                           ; 1 bytes @ 0x0
   196                           
   197     0070                     ?_initial_condition:	
   198                           ; 1 bytes @ 0x0
   199                           
   200     0070                     ?_main:	
   201                           ; 1 bytes @ 0x0
   202                           
   203     0070                     ?___awdiv:	
   204                           ; 1 bytes @ 0x0
   205                           
   206     0070                     ___awdiv@divisor:	
   207                           ; 2 bytes @ 0x0
   208                           
   209                           
   210                           ; 2 bytes @ 0x0
   211     0070                     	ds	2
   212     0072                     ___awdiv@dividend:
   213                           
   214                           ; 2 bytes @ 0x2
   215     0072                     	ds	2
   216     0074                     ??___awdiv:
   217     0074                     ___awdiv@counter:	
   218                           ; 1 bytes @ 0x4
   219                           
   220                           
   221                           ; 1 bytes @ 0x4
   222     0074                     	ds	1
   223     0075                     ___awdiv@sign:
   224                           
   225                           ; 1 bytes @ 0x5
   226     0075                     	ds	1
   227     0076                     ___awdiv@quotient:
   228                           
   229                           ; 2 bytes @ 0x6
   230     0076                     	ds	2
   231     0078                     ?___awmod:
   232     0078                     ___awmod@divisor:	
   233                           ; 2 bytes @ 0x8
   234                           
   235                           
   236                           ; 2 bytes @ 0x8
   237     0078                     	ds	2
   238     007A                     ___awmod@dividend:
   239                           
   240                           ; 2 bytes @ 0xA
   241     007A                     	ds	2
   242     007C                     ??___awmod:
   243     007C                     ___awmod@counter:	
   244                           ; 1 bytes @ 0xC
   245                           
   246                           
   247                           ; 1 bytes @ 0xC
   248     007C                     	ds	1
   249     007D                     ___awmod@sign:
   250                           
   251                           ; 1 bytes @ 0xD
   252     007D                     	ds	1
   253     007E                     ??_initial_condition:
   254     007E                     ??_main:	
   255                           ; 1 bytes @ 0xE
   256                           
   257                           
   258                           	psect	cstackBANK0
   259     0020                     __pcstackBANK0:	
   260                           ; 1 bytes @ 0xE
   261                           
   262     0020                     ??_Team1_Display:
   263     0020                     ??_Team2_Display:	
   264                           ; 1 bytes @ 0x0
   265                           
   266                           
   267                           ; 1 bytes @ 0x0
   268     0020                     	ds	2
   269     0022                     Team1_Display@num:
   270     0022                     Team2_Display@num:	
   271                           ; 1 bytes @ 0x2
   272                           
   273                           
   274                           ; 1 bytes @ 0x2
   275     0022                     	ds	1
   276     0023                     initial_condition@num:
   277                           
   278                           ; 1 bytes @ 0x3
   279     0023                     	ds	1
   280     0024                     main@team1:
   281                           
   282                           ; 1 bytes @ 0x4
   283     0024                     	ds	1
   284     0025                     main@team2:
   285                           
   286                           ; 1 bytes @ 0x5
   287     0025                     	ds	1
   288                           
   289                           	psect	maintext
   290     05D8                     __pmaintext:	
   291 ;;
   292 ;;Main: autosize = 0, tempsize = 0, incstack = 0, save=0
   293 ;;
   294 ;; *************** function _main *****************
   295 ;; Defined at:
   296 ;;		line 110 in file "main.c"
   297 ;; Parameters:    Size  Location     Type
   298 ;;		None
   299 ;; Auto vars:     Size  Location     Type
   300 ;;  team2           1    5[BANK0 ] unsigned char 
   301 ;;  team1           1    4[BANK0 ] unsigned char 
   302 ;; Return value:  Size  Location     Type
   303 ;;                  1    wreg      void 
   304 ;; Registers used:
   305 ;;		wreg, status,2, status,0, btemp+1, pclath, cstack
   306 ;; Tracked objects:
   307 ;;		On entry : B00/0
   308 ;;		On exit  : 0/0
   309 ;;		Unchanged: 0/0
   310 ;; Data sizes:     COMMON   BANK0   BANK1   BANK3   BANK2
   311 ;;      Params:         0       0       0       0       0
   312 ;;      Locals:         0       2       0       0       0
   313 ;;      Temps:          0       0       0       0       0
   314 ;;      Totals:         0       2       0       0       0
   315 ;;Total ram usage:        2 bytes
   316 ;; Hardware stack levels required when called: 3
   317 ;; This function calls:
   318 ;;		_Team1_Display
   319 ;;		_Team2_Display
   320 ;;		_initial_condition
   321 ;; This function is called by:
   322 ;;		Startup code after reset
   323 ;; This function uses a non-reentrant model
   324 ;;
   325                           
   326     05D8                     _main:	
   327                           ;psect for function _main
   328                           
   329     05D8                     l926:	
   330                           ;incstack = 0
   331                           ; Regs used in _main: [wreg+status,2+status,0+btemp+1+pclath+cstack]
   332                           
   333                           
   334                           ;main.c: 112:     TRISB=0xff;
   335     05D8  30FF               	movlw	255
   336     05D9  1683               	bsf	3,5	;RP0=1, select bank1
   337     05DA  1303               	bcf	3,6	;RP1=0, select bank1
   338     05DB  0086               	movwf	6	;volatile
   339     05DC                     l928:
   340                           
   341                           ;main.c: 113:     OPTION_REGbits.nRBPU = 0;
   342     05DC  1381               	bcf	1,7	;volatile
   343     05DD                     l930:
   344                           
   345                           ;main.c: 115:     TRISC=0x00;
   346     05DD  0187               	clrf	7	;volatile
   347     05DE                     l932:
   348                           
   349                           ;main.c: 116:     TRISD=0x00;
   350     05DE  0188               	clrf	8	;volatile
   351     05DF                     l934:
   352                           
   353                           ;main.c: 120:  initial_condition();
   354     05DF  120A  118A  25B1  120A  118A  	fcall	_initial_condition
   355     05E4                     l936:
   356                           
   357                           ;main.c: 123:     unsigned char team1=0,team2=0;
   358     05E4  1283               	bcf	3,5	;RP0=0, select bank0
   359     05E5  1303               	bcf	3,6	;RP1=0, select bank0
   360     05E6  01A4               	clrf	main@team1
   361     05E7                     l938:
   362     05E7  01A5               	clrf	main@team2
   363     05E8                     l940:
   364                           
   365                           ;main.c: 126:     {;main.c: 127:         if(PORTBbits.RB0==0)
   366     05E8  1283               	bcf	3,5	;RP0=0, select bank0
   367     05E9  1303               	bcf	3,6	;RP1=0, select bank0
   368     05EA  1806               	btfsc	6,0	;volatile
   369     05EB  2DED               	goto	u491
   370     05EC  2DEE               	goto	u490
   371     05ED                     u491:
   372     05ED  2DF6               	goto	l38
   373     05EE                     u490:
   374     05EE                     l942:
   375                           
   376                           ;main.c: 128:         {;main.c: 129:             team1+=2;
   377     05EE  3002               	movlw	2
   378     05EF  00FF               	movwf	btemp+1
   379     05F0  087F               	movf	btemp+1,w
   380     05F1  07A4               	addwf	main@team1,f
   381     05F2                     l39:	
   382                           ;main.c: 130:             while(PORTBbits.RB0==0);
   383                           
   384     05F2  1C06               	btfss	6,0	;volatile
   385     05F3  2DF5               	goto	u501
   386     05F4  2DF6               	goto	u500
   387     05F5                     u501:
   388     05F5  2DF2               	goto	l39
   389     05F6                     u500:
   390     05F6                     l38:	
   391                           ;main.c: 131:         }
   392                           
   393                           
   394                           ;main.c: 132:         if(PORTBbits.RB1==0)
   395     05F6  1886               	btfsc	6,1	;volatile
   396     05F7  2DF9               	goto	u511
   397     05F8  2DFA               	goto	u510
   398     05F9                     u511:
   399     05F9  2E02               	goto	l42
   400     05FA                     u510:
   401     05FA                     l944:
   402                           
   403                           ;main.c: 133:         {;main.c: 134:             team1+=3;
   404     05FA  3003               	movlw	3
   405     05FB  00FF               	movwf	btemp+1
   406     05FC  087F               	movf	btemp+1,w
   407     05FD  07A4               	addwf	main@team1,f
   408     05FE                     l43:	
   409                           ;main.c: 135:             while(PORTBbits.RB1==0);
   410                           
   411     05FE  1C86               	btfss	6,1	;volatile
   412     05FF  2E01               	goto	u521
   413     0600  2E02               	goto	u520
   414     0601                     u521:
   415     0601  2DFE               	goto	l43
   416     0602                     u520:
   417     0602                     l42:	
   418                           ;main.c: 136:         }
   419                           
   420                           
   421                           ;main.c: 137:         if(PORTBbits.RB6==0)
   422     0602  1B06               	btfsc	6,6	;volatile
   423     0603  2E05               	goto	u531
   424     0604  2E06               	goto	u530
   425     0605                     u531:
   426     0605  2E0E               	goto	l46
   427     0606                     u530:
   428     0606                     l946:
   429                           
   430                           ;main.c: 138:         {;main.c: 139:             team2+=2;
   431     0606  3002               	movlw	2
   432     0607  00FF               	movwf	btemp+1
   433     0608  087F               	movf	btemp+1,w
   434     0609  07A5               	addwf	main@team2,f
   435     060A                     l47:	
   436                           ;main.c: 140:             while(PORTBbits.RB6==0);
   437                           
   438     060A  1F06               	btfss	6,6	;volatile
   439     060B  2E0D               	goto	u541
   440     060C  2E0E               	goto	u540
   441     060D                     u541:
   442     060D  2E0A               	goto	l47
   443     060E                     u540:
   444     060E                     l46:	
   445                           ;main.c: 141:         }
   446                           
   447                           
   448                           ;main.c: 142:         if(PORTBbits.RB7==0)
   449     060E  1B86               	btfsc	6,7	;volatile
   450     060F  2E11               	goto	u551
   451     0610  2E12               	goto	u550
   452     0611                     u551:
   453     0611  2E1A               	goto	l950
   454     0612                     u550:
   455     0612                     l948:
   456                           
   457                           ;main.c: 143:         {;main.c: 144:             team2+=3;
   458     0612  3003               	movlw	3
   459     0613  00FF               	movwf	btemp+1
   460     0614  087F               	movf	btemp+1,w
   461     0615  07A5               	addwf	main@team2,f
   462     0616                     l51:	
   463                           ;main.c: 145:             while(PORTBbits.RB7==0);
   464                           
   465     0616  1F86               	btfss	6,7	;volatile
   466     0617  2E19               	goto	u561
   467     0618  2E1A               	goto	u560
   468     0619                     u561:
   469     0619  2E16               	goto	l51
   470     061A                     u560:
   471     061A                     l950:
   472                           
   473                           ;main.c: 148:   Team1_Display(team1);
   474     061A  0824               	movf	main@team1,w
   475     061B  120A  118A  26EC  120A  118A  	fcall	_Team1_Display
   476                           
   477                           ;main.c: 149:   Team2_Display(team2);
   478     0620  1283               	bcf	3,5	;RP0=0, select bank0
   479     0621  1303               	bcf	3,6	;RP1=0, select bank0
   480     0622  0825               	movf	main@team2,w
   481     0623  120A  118A  2774  120A  118A  	fcall	_Team2_Display
   482     0628  2DE8               	goto	l940
   483     0629  120A  118A  2800   	ljmp	start
   484     062C                     __end_of_main:
   485                           
   486                           	psect	text1
   487     05B1                     __ptext1:	
   488 ;; *************** function _initial_condition *****************
   489 ;; Defined at:
   490 ;;		line 91 in file "main.c"
   491 ;; Parameters:    Size  Location     Type
   492 ;;		None
   493 ;; Auto vars:     Size  Location     Type
   494 ;;  num             1    3[BANK0 ] unsigned char 
   495 ;; Return value:  Size  Location     Type
   496 ;;                  1    wreg      void 
   497 ;; Registers used:
   498 ;;		wreg, status,2, status,0, btemp+1, pclath, cstack
   499 ;; Tracked objects:
   500 ;;		On entry : 0/0
   501 ;;		On exit  : 0/0
   502 ;;		Unchanged: 0/0
   503 ;; Data sizes:     COMMON   BANK0   BANK1   BANK3   BANK2
   504 ;;      Params:         0       0       0       0       0
   505 ;;      Locals:         0       1       0       0       0
   506 ;;      Temps:          0       0       0       0       0
   507 ;;      Totals:         0       1       0       0       0
   508 ;;Total ram usage:        1 bytes
   509 ;; Hardware stack levels used: 1
   510 ;; Hardware stack levels required when called: 2
   511 ;; This function calls:
   512 ;;		_Team1_Display
   513 ;;		_Team2_Display
   514 ;; This function is called by:
   515 ;;		_main
   516 ;; This function uses a non-reentrant model
   517 ;;
   518                           
   519     05B1                     _initial_condition:	
   520                           ;psect for function _initial_condition
   521                           
   522     05B1                     l914:	
   523                           ;incstack = 0
   524                           ; Regs used in _initial_condition: [wreg+status,2+status,0+btemp+1+pclath+cstack]
   525                           
   526                           
   527                           ;main.c: 93:  unsigned char num = 3000/(10*6);
   528     05B1  3032               	movlw	50
   529     05B2  1283               	bcf	3,5	;RP0=0, select bank0
   530     05B3  1303               	bcf	3,6	;RP1=0, select bank0
   531     05B4  00A3               	movwf	initial_condition@num
   532                           
   533                           ;main.c: 95:  while(num)
   534     05B5  2DC6               	goto	l920
   535     05B6                     l916:
   536                           
   537                           ;main.c: 96:  {;main.c: 97:   Team1_Display(101);
   538     05B6  3065               	movlw	101
   539     05B7  120A  118A  26EC  120A  118A  	fcall	_Team1_Display
   540                           
   541                           ;main.c: 98:   Team2_Display(103);
   542     05BC  3067               	movlw	103
   543     05BD  120A  118A  2774  120A  118A  	fcall	_Team2_Display
   544     05C2                     l918:
   545                           
   546                           ;main.c: 99:   num--;
   547     05C2  3001               	movlw	1
   548     05C3  1283               	bcf	3,5	;RP0=0, select bank0
   549     05C4  1303               	bcf	3,6	;RP1=0, select bank0
   550     05C5  02A3               	subwf	initial_condition@num,f
   551     05C6                     l920:
   552                           
   553                           ;main.c: 95:  while(num)
   554     05C6  0823               	movf	initial_condition@num,w
   555     05C7  1D03               	btfss	3,2
   556     05C8  2DCA               	goto	u481
   557     05C9  2DCB               	goto	u480
   558     05CA                     u481:
   559     05CA  2DB6               	goto	l916
   560     05CB                     u480:
   561     05CB                     l922:
   562                           
   563                           ;main.c: 102:  Team1_Display(0);
   564     05CB  3000               	movlw	0
   565     05CC  120A  118A  26EC  120A  118A  	fcall	_Team1_Display
   566                           
   567                           ;main.c: 103:  Team2_Display(0);
   568     05D1  3000               	movlw	0
   569     05D2  120A  118A  2774  120A  118A  	fcall	_Team2_Display
   570     05D7                     l32:
   571     05D7  0008               	return
   572     05D8                     __end_of_initial_condition:
   573                           
   574                           	psect	text2
   575     0774                     __ptext2:	
   576 ;; *************** function _Team2_Display *****************
   577 ;; Defined at:
   578 ;;		line 64 in file "main.c"
   579 ;; Parameters:    Size  Location     Type
   580 ;;  num             1    wreg     unsigned char 
   581 ;; Auto vars:     Size  Location     Type
   582 ;;  num             1    2[BANK0 ] unsigned char 
   583 ;; Return value:  Size  Location     Type
   584 ;;                  1    wreg      void 
   585 ;; Registers used:
   586 ;;		wreg, status,2, status,0, btemp+1, pclath, cstack
   587 ;; Tracked objects:
   588 ;;		On entry : 0/0
   589 ;;		On exit  : 0/0
   590 ;;		Unchanged: 0/0
   591 ;; Data sizes:     COMMON   BANK0   BANK1   BANK3   BANK2
   592 ;;      Params:         0       0       0       0       0
   593 ;;      Locals:         0       1       0       0       0
   594 ;;      Temps:          0       2       0       0       0
   595 ;;      Totals:         0       3       0       0       0
   596 ;;Total ram usage:        3 bytes
   597 ;; Hardware stack levels used: 1
   598 ;; Hardware stack levels required when called: 1
   599 ;; This function calls:
   600 ;;		___awdiv
   601 ;;		___awmod
   602 ;; This function is called by:
   603 ;;		_initial_condition
   604 ;;		_main
   605 ;; This function uses a non-reentrant model
   606 ;;
   607                           
   608     0774                     _Team2_Display:	
   609                           ;psect for function _Team2_Display
   610                           
   611                           
   612                           ;incstack = 0
   613                           ; Regs used in _Team2_Display: [wreg+status,2+status,0+btemp+1+pclath+cstack]
   614                           ;Team2_Display@num stored from wreg
   615     0774  1283               	bcf	3,5	;RP0=0, select bank0
   616     0775  1303               	bcf	3,6	;RP1=0, select bank0
   617     0776  00A2               	movwf	Team2_Display@num
   618     0777                     l886:
   619                           
   620                           ;main.c: 64: void Team2_Display(unsigned char num);main.c: 65: {;main.c: 67:  PORTD=num%
      +                          10;
   621     0777  300A               	movlw	10
   622     0778  00F8               	movwf	___awmod@divisor
   623     0779  3000               	movlw	0
   624     077A  00F9               	movwf	___awmod@divisor+1
   625     077B  0822               	movf	Team2_Display@num,w
   626     077C  00A0               	movwf	??_Team2_Display
   627     077D  01A1               	clrf	??_Team2_Display+1
   628     077E  0820               	movf	??_Team2_Display,w
   629     077F  00FA               	movwf	___awmod@dividend
   630     0780  0821               	movf	??_Team2_Display+1,w
   631     0781  00FB               	movwf	___awmod@dividend+1
   632     0782  120A  118A  262C  120A  118A  	fcall	___awmod
   633     0787  0878               	movf	?___awmod,w
   634     0788  1283               	bcf	3,5	;RP0=0, select bank0
   635     0789  1303               	bcf	3,6	;RP1=0, select bank0
   636     078A  0088               	movwf	8	;volatile
   637     078B                     l888:
   638                           
   639                           ;main.c: 69:  PORTDbits.RD7=1;
   640     078B  1788               	bsf	8,7	;volatile
   641     078C                     l890:
   642                           
   643                           ;main.c: 70:     PORTDbits.RD6=0;
   644     078C  1308               	bcf	8,6	;volatile
   645     078D                     l892:
   646                           
   647                           ;main.c: 71:     PORTDbits.RD5=0;
   648     078D  1288               	bcf	8,5	;volatile
   649     078E                     l894:
   650                           
   651                           ;main.c: 72:  _delay((unsigned long)((10)*((8000000)/4000.0)));
   652     078E  301A               	movlw	26
   653     078F  1283               	bcf	3,5	;RP0=0, select bank0
   654     0790  1303               	bcf	3,6	;RP1=0, select bank0
   655     0791  00A1               	movwf	??_Team2_Display+1
   656     0792  30F7               	movlw	247
   657     0793  00A0               	movwf	??_Team2_Display
   658     0794                     u577:
   659     0794  0BA0               	decfsz	??_Team2_Display,f
   660     0795  2F94               	goto	u577
   661     0796  0BA1               	decfsz	??_Team2_Display+1,f
   662     0797  2F94               	goto	u577
   663     0798  2F99               	nop2
   664     0799                     l896:
   665                           
   666                           ;main.c: 75:  PORTD=(num/10)%10;
   667     0799  300A               	movlw	10
   668     079A  00F8               	movwf	___awmod@divisor
   669     079B  3000               	movlw	0
   670     079C  00F9               	movwf	___awmod@divisor+1
   671     079D  300A               	movlw	10
   672     079E  00F0               	movwf	___awdiv@divisor
   673     079F  3000               	movlw	0
   674     07A0  00F1               	movwf	___awdiv@divisor+1
   675     07A1  1283               	bcf	3,5	;RP0=0, select bank0
   676     07A2  1303               	bcf	3,6	;RP1=0, select bank0
   677     07A3  0822               	movf	Team2_Display@num,w
   678     07A4  00A0               	movwf	??_Team2_Display
   679     07A5  01A1               	clrf	??_Team2_Display+1
   680     07A6  0820               	movf	??_Team2_Display,w
   681     07A7  00F2               	movwf	___awdiv@dividend
   682     07A8  0821               	movf	??_Team2_Display+1,w
   683     07A9  00F3               	movwf	___awdiv@dividend+1
   684     07AA  120A  118A  2685  120A  118A  	fcall	___awdiv
   685     07AF  0871               	movf	?___awdiv+1,w
   686     07B0  00FB               	movwf	___awmod@dividend+1
   687     07B1  0870               	movf	?___awdiv,w
   688     07B2  00FA               	movwf	___awmod@dividend
   689     07B3  120A  118A  262C  120A  118A  	fcall	___awmod
   690     07B8  0878               	movf	?___awmod,w
   691     07B9  1283               	bcf	3,5	;RP0=0, select bank0
   692     07BA  1303               	bcf	3,6	;RP1=0, select bank0
   693     07BB  0088               	movwf	8	;volatile
   694     07BC                     l898:
   695                           
   696                           ;main.c: 77:  PORTDbits.RD7=0;
   697     07BC  1388               	bcf	8,7	;volatile
   698     07BD                     l900:
   699                           
   700                           ;main.c: 78:     PORTDbits.RD6=1;
   701     07BD  1708               	bsf	8,6	;volatile
   702     07BE                     l902:
   703                           
   704                           ;main.c: 79:     PORTDbits.RD5=0;
   705     07BE  1288               	bcf	8,5	;volatile
   706                           
   707                           ;main.c: 80:  _delay((unsigned long)((10)*((8000000)/4000.0)));
   708     07BF  301A               	movlw	26
   709     07C0  1283               	bcf	3,5	;RP0=0, select bank0
   710     07C1  1303               	bcf	3,6	;RP1=0, select bank0
   711     07C2  00A1               	movwf	??_Team2_Display+1
   712     07C3  30F7               	movlw	247
   713     07C4  00A0               	movwf	??_Team2_Display
   714     07C5                     u587:
   715     07C5  0BA0               	decfsz	??_Team2_Display,f
   716     07C6  2FC5               	goto	u587
   717     07C7  0BA1               	decfsz	??_Team2_Display+1,f
   718     07C8  2FC5               	goto	u587
   719     07C9  2FCA               	nop2
   720     07CA                     l904:
   721                           
   722                           ;main.c: 83:  PORTD=(num/100)%10;
   723     07CA  300A               	movlw	10
   724     07CB  00F8               	movwf	___awmod@divisor
   725     07CC  3000               	movlw	0
   726     07CD  00F9               	movwf	___awmod@divisor+1
   727     07CE  3064               	movlw	100
   728     07CF  00F0               	movwf	___awdiv@divisor
   729     07D0  3000               	movlw	0
   730     07D1  00F1               	movwf	___awdiv@divisor+1
   731     07D2  1283               	bcf	3,5	;RP0=0, select bank0
   732     07D3  1303               	bcf	3,6	;RP1=0, select bank0
   733     07D4  0822               	movf	Team2_Display@num,w
   734     07D5  00A0               	movwf	??_Team2_Display
   735     07D6  01A1               	clrf	??_Team2_Display+1
   736     07D7  0820               	movf	??_Team2_Display,w
   737     07D8  00F2               	movwf	___awdiv@dividend
   738     07D9  0821               	movf	??_Team2_Display+1,w
   739     07DA  00F3               	movwf	___awdiv@dividend+1
   740     07DB  120A  118A  2685  120A  118A  	fcall	___awdiv
   741     07E0  0871               	movf	?___awdiv+1,w
   742     07E1  00FB               	movwf	___awmod@dividend+1
   743     07E2  0870               	movf	?___awdiv,w
   744     07E3  00FA               	movwf	___awmod@dividend
   745     07E4  120A  118A  262C  120A  118A  	fcall	___awmod
   746     07E9  0878               	movf	?___awmod,w
   747     07EA  1283               	bcf	3,5	;RP0=0, select bank0
   748     07EB  1303               	bcf	3,6	;RP1=0, select bank0
   749     07EC  0088               	movwf	8	;volatile
   750     07ED                     l906:
   751                           
   752                           ;main.c: 85:  PORTDbits.RD7=0;
   753     07ED  1388               	bcf	8,7	;volatile
   754     07EE                     l908:
   755                           
   756                           ;main.c: 86:     PORTDbits.RD6=0;
   757     07EE  1308               	bcf	8,6	;volatile
   758     07EF                     l910:
   759                           
   760                           ;main.c: 87:     PORTDbits.RD5=1;
   761     07EF  1688               	bsf	8,5	;volatile
   762     07F0                     l912:
   763                           
   764                           ;main.c: 88:  _delay((unsigned long)((10)*((8000000)/4000.0)));
   765     07F0  301A               	movlw	26
   766     07F1  1283               	bcf	3,5	;RP0=0, select bank0
   767     07F2  1303               	bcf	3,6	;RP1=0, select bank0
   768     07F3  00A1               	movwf	??_Team2_Display+1
   769     07F4  30F7               	movlw	247
   770     07F5  00A0               	movwf	??_Team2_Display
   771     07F6                     u597:
   772     07F6  0BA0               	decfsz	??_Team2_Display,f
   773     07F7  2FF6               	goto	u597
   774     07F8  0BA1               	decfsz	??_Team2_Display+1,f
   775     07F9  2FF6               	goto	u597
   776     07FA  2FFB               	nop2
   777     07FB                     l26:
   778     07FB  0008               	return
   779     07FC                     __end_of_Team2_Display:
   780                           
   781                           	psect	text3
   782     06EC                     __ptext3:	
   783 ;; *************** function _Team1_Display *****************
   784 ;; Defined at:
   785 ;;		line 35 in file "main.c"
   786 ;; Parameters:    Size  Location     Type
   787 ;;  num             1    wreg     unsigned char 
   788 ;; Auto vars:     Size  Location     Type
   789 ;;  num             1    2[BANK0 ] unsigned char 
   790 ;; Return value:  Size  Location     Type
   791 ;;                  1    wreg      void 
   792 ;; Registers used:
   793 ;;		wreg, status,2, status,0, btemp+1, pclath, cstack
   794 ;; Tracked objects:
   795 ;;		On entry : 0/0
   796 ;;		On exit  : 0/0
   797 ;;		Unchanged: 0/0
   798 ;; Data sizes:     COMMON   BANK0   BANK1   BANK3   BANK2
   799 ;;      Params:         0       0       0       0       0
   800 ;;      Locals:         0       1       0       0       0
   801 ;;      Temps:          0       2       0       0       0
   802 ;;      Totals:         0       3       0       0       0
   803 ;;Total ram usage:        3 bytes
   804 ;; Hardware stack levels used: 1
   805 ;; Hardware stack levels required when called: 1
   806 ;; This function calls:
   807 ;;		___awdiv
   808 ;;		___awmod
   809 ;; This function is called by:
   810 ;;		_initial_condition
   811 ;;		_main
   812 ;; This function uses a non-reentrant model
   813 ;;
   814                           
   815     06EC                     _Team1_Display:	
   816                           ;psect for function _Team1_Display
   817                           
   818                           
   819                           ;incstack = 0
   820                           ; Regs used in _Team1_Display: [wreg+status,2+status,0+btemp+1+pclath+cstack]
   821                           ;Team1_Display@num stored from wreg
   822     06EC  1283               	bcf	3,5	;RP0=0, select bank0
   823     06ED  1303               	bcf	3,6	;RP1=0, select bank0
   824     06EE  00A2               	movwf	Team1_Display@num
   825     06EF                     l858:
   826                           
   827                           ;main.c: 35: void Team1_Display(unsigned char num);main.c: 36: {;main.c: 38:  PORTC=num%
      +                          10;
   828     06EF  300A               	movlw	10
   829     06F0  00F8               	movwf	___awmod@divisor
   830     06F1  3000               	movlw	0
   831     06F2  00F9               	movwf	___awmod@divisor+1
   832     06F3  0822               	movf	Team1_Display@num,w
   833     06F4  00A0               	movwf	??_Team1_Display
   834     06F5  01A1               	clrf	??_Team1_Display+1
   835     06F6  0820               	movf	??_Team1_Display,w
   836     06F7  00FA               	movwf	___awmod@dividend
   837     06F8  0821               	movf	??_Team1_Display+1,w
   838     06F9  00FB               	movwf	___awmod@dividend+1
   839     06FA  120A  118A  262C  120A  118A  	fcall	___awmod
   840     06FF  0878               	movf	?___awmod,w
   841     0700  1283               	bcf	3,5	;RP0=0, select bank0
   842     0701  1303               	bcf	3,6	;RP1=0, select bank0
   843     0702  0087               	movwf	7	;volatile
   844     0703                     l860:
   845                           
   846                           ;main.c: 40:  PORTCbits.RC7=1;
   847     0703  1787               	bsf	7,7	;volatile
   848     0704                     l862:
   849                           
   850                           ;main.c: 41:     PORTCbits.RC6=0;
   851     0704  1307               	bcf	7,6	;volatile
   852     0705                     l864:
   853                           
   854                           ;main.c: 42:     PORTCbits.RC5=0;
   855     0705  1287               	bcf	7,5	;volatile
   856     0706                     l866:
   857                           
   858                           ;main.c: 44:  _delay((unsigned long)((10)*((8000000)/4000.0)));
   859     0706  301A               	movlw	26
   860     0707  1283               	bcf	3,5	;RP0=0, select bank0
   861     0708  1303               	bcf	3,6	;RP1=0, select bank0
   862     0709  00A1               	movwf	??_Team1_Display+1
   863     070A  30F7               	movlw	247
   864     070B  00A0               	movwf	??_Team1_Display
   865     070C                     u607:
   866     070C  0BA0               	decfsz	??_Team1_Display,f
   867     070D  2F0C               	goto	u607
   868     070E  0BA1               	decfsz	??_Team1_Display+1,f
   869     070F  2F0C               	goto	u607
   870     0710  2F11               	nop2
   871     0711                     l868:
   872                           
   873                           ;main.c: 47:  PORTC=(num/10)%10;
   874     0711  300A               	movlw	10
   875     0712  00F8               	movwf	___awmod@divisor
   876     0713  3000               	movlw	0
   877     0714  00F9               	movwf	___awmod@divisor+1
   878     0715  300A               	movlw	10
   879     0716  00F0               	movwf	___awdiv@divisor
   880     0717  3000               	movlw	0
   881     0718  00F1               	movwf	___awdiv@divisor+1
   882     0719  1283               	bcf	3,5	;RP0=0, select bank0
   883     071A  1303               	bcf	3,6	;RP1=0, select bank0
   884     071B  0822               	movf	Team1_Display@num,w
   885     071C  00A0               	movwf	??_Team1_Display
   886     071D  01A1               	clrf	??_Team1_Display+1
   887     071E  0820               	movf	??_Team1_Display,w
   888     071F  00F2               	movwf	___awdiv@dividend
   889     0720  0821               	movf	??_Team1_Display+1,w
   890     0721  00F3               	movwf	___awdiv@dividend+1
   891     0722  120A  118A  2685  120A  118A  	fcall	___awdiv
   892     0727  0871               	movf	?___awdiv+1,w
   893     0728  00FB               	movwf	___awmod@dividend+1
   894     0729  0870               	movf	?___awdiv,w
   895     072A  00FA               	movwf	___awmod@dividend
   896     072B  120A  118A  262C  120A  118A  	fcall	___awmod
   897     0730  0878               	movf	?___awmod,w
   898     0731  1283               	bcf	3,5	;RP0=0, select bank0
   899     0732  1303               	bcf	3,6	;RP1=0, select bank0
   900     0733  0087               	movwf	7	;volatile
   901     0734                     l870:
   902                           
   903                           ;main.c: 49:     PORTCbits.RC7=0;
   904     0734  1387               	bcf	7,7	;volatile
   905     0735                     l872:
   906                           
   907                           ;main.c: 50:     PORTCbits.RC6=1;
   908     0735  1707               	bsf	7,6	;volatile
   909     0736                     l874:
   910                           
   911                           ;main.c: 51:     PORTCbits.RC5=0;
   912     0736  1287               	bcf	7,5	;volatile
   913                           
   914                           ;main.c: 53:  _delay((unsigned long)((10)*((8000000)/4000.0)));
   915     0737  301A               	movlw	26
   916     0738  1283               	bcf	3,5	;RP0=0, select bank0
   917     0739  1303               	bcf	3,6	;RP1=0, select bank0
   918     073A  00A1               	movwf	??_Team1_Display+1
   919     073B  30F7               	movlw	247
   920     073C  00A0               	movwf	??_Team1_Display
   921     073D                     u617:
   922     073D  0BA0               	decfsz	??_Team1_Display,f
   923     073E  2F3D               	goto	u617
   924     073F  0BA1               	decfsz	??_Team1_Display+1,f
   925     0740  2F3D               	goto	u617
   926     0741  2F42               	nop2
   927     0742                     l876:
   928                           
   929                           ;main.c: 56:  PORTC=(num/100)%10;
   930     0742  300A               	movlw	10
   931     0743  00F8               	movwf	___awmod@divisor
   932     0744  3000               	movlw	0
   933     0745  00F9               	movwf	___awmod@divisor+1
   934     0746  3064               	movlw	100
   935     0747  00F0               	movwf	___awdiv@divisor
   936     0748  3000               	movlw	0
   937     0749  00F1               	movwf	___awdiv@divisor+1
   938     074A  1283               	bcf	3,5	;RP0=0, select bank0
   939     074B  1303               	bcf	3,6	;RP1=0, select bank0
   940     074C  0822               	movf	Team1_Display@num,w
   941     074D  00A0               	movwf	??_Team1_Display
   942     074E  01A1               	clrf	??_Team1_Display+1
   943     074F  0820               	movf	??_Team1_Display,w
   944     0750  00F2               	movwf	___awdiv@dividend
   945     0751  0821               	movf	??_Team1_Display+1,w
   946     0752  00F3               	movwf	___awdiv@dividend+1
   947     0753  120A  118A  2685  120A  118A  	fcall	___awdiv
   948     0758  0871               	movf	?___awdiv+1,w
   949     0759  00FB               	movwf	___awmod@dividend+1
   950     075A  0870               	movf	?___awdiv,w
   951     075B  00FA               	movwf	___awmod@dividend
   952     075C  120A  118A  262C  120A  118A  	fcall	___awmod
   953     0761  0878               	movf	?___awmod,w
   954     0762  1283               	bcf	3,5	;RP0=0, select bank0
   955     0763  1303               	bcf	3,6	;RP1=0, select bank0
   956     0764  0087               	movwf	7	;volatile
   957     0765                     l878:
   958                           
   959                           ;main.c: 58:  PORTCbits.RC7=0;
   960     0765  1387               	bcf	7,7	;volatile
   961     0766                     l880:
   962                           
   963                           ;main.c: 59:     PORTCbits.RC6=0;
   964     0766  1307               	bcf	7,6	;volatile
   965     0767                     l882:
   966                           
   967                           ;main.c: 60:     PORTCbits.RC5=1;
   968     0767  1687               	bsf	7,5	;volatile
   969     0768                     l884:
   970                           
   971                           ;main.c: 61:  _delay((unsigned long)((10)*((8000000)/4000.0)));
   972     0768  301A               	movlw	26
   973     0769  1283               	bcf	3,5	;RP0=0, select bank0
   974     076A  1303               	bcf	3,6	;RP1=0, select bank0
   975     076B  00A1               	movwf	??_Team1_Display+1
   976     076C  30F7               	movlw	247
   977     076D  00A0               	movwf	??_Team1_Display
   978     076E                     u627:
   979     076E  0BA0               	decfsz	??_Team1_Display,f
   980     076F  2F6E               	goto	u627
   981     0770  0BA1               	decfsz	??_Team1_Display+1,f
   982     0771  2F6E               	goto	u627
   983     0772  2F73               	nop2
   984     0773                     l23:
   985     0773  0008               	return
   986     0774                     __end_of_Team1_Display:
   987                           
   988                           	psect	text4
   989     062C                     __ptext4:	
   990 ;; *************** function ___awmod *****************
   991 ;; Defined at:
   992 ;;		line 5 in file "C:\Program Files\Microchip\xc8\v2.46\pic\sources\c99\common\awmod.c"
   993 ;; Parameters:    Size  Location     Type
   994 ;;  divisor         2    8[COMMON] int 
   995 ;;  dividend        2   10[COMMON] int 
   996 ;; Auto vars:     Size  Location     Type
   997 ;;  sign            1   13[COMMON] unsigned char 
   998 ;;  counter         1   12[COMMON] unsigned char 
   999 ;; Return value:  Size  Location     Type
  1000 ;;                  2    8[COMMON] int 
  1001 ;; Registers used:
  1002 ;;		wreg, status,2, status,0, btemp+1
  1003 ;; Tracked objects:
  1004 ;;		On entry : 0/0
  1005 ;;		On exit  : 0/0
  1006 ;;		Unchanged: 0/0
  1007 ;; Data sizes:     COMMON   BANK0   BANK1   BANK3   BANK2
  1008 ;;      Params:         4       0       0       0       0
  1009 ;;      Locals:         2       0       0       0       0
  1010 ;;      Temps:          0       0       0       0       0
  1011 ;;      Totals:         6       0       0       0       0
  1012 ;;Total ram usage:        6 bytes
  1013 ;; Hardware stack levels used: 1
  1014 ;; This function calls:
  1015 ;;		Nothing
  1016 ;; This function is called by:
  1017 ;;		_Team1_Display
  1018 ;;		_Team2_Display
  1019 ;; This function uses a non-reentrant model
  1020 ;;
  1021                           
  1022     062C                     ___awmod:	
  1023                           ;psect for function ___awmod
  1024                           
  1025     062C                     l820:	
  1026                           ;incstack = 0
  1027                           ; Regs used in ___awmod: [wreg+status,2+status,0+btemp+1]
  1028                           
  1029     062C  01FD               	clrf	___awmod@sign
  1030     062D                     l822:
  1031     062D  1FFB               	btfss	___awmod@dividend+1,7
  1032     062E  2E30               	goto	u391
  1033     062F  2E31               	goto	u390
  1034     0630                     u391:
  1035     0630  2E38               	goto	l828
  1036     0631                     u390:
  1037     0631                     l824:
  1038     0631  09FA               	comf	___awmod@dividend,f
  1039     0632  09FB               	comf	___awmod@dividend+1,f
  1040     0633  0AFA               	incf	___awmod@dividend,f
  1041     0634  1903               	skipnz
  1042     0635  0AFB               	incf	___awmod@dividend+1,f
  1043     0636                     l826:
  1044     0636  01FD               	clrf	___awmod@sign
  1045     0637  0AFD               	incf	___awmod@sign,f
  1046     0638                     l828:
  1047     0638  1FF9               	btfss	___awmod@divisor+1,7
  1048     0639  2E3B               	goto	u401
  1049     063A  2E3C               	goto	u400
  1050     063B                     u401:
  1051     063B  2E41               	goto	l832
  1052     063C                     u400:
  1053     063C                     l830:
  1054     063C  09F8               	comf	___awmod@divisor,f
  1055     063D  09F9               	comf	___awmod@divisor+1,f
  1056     063E  0AF8               	incf	___awmod@divisor,f
  1057     063F  1903               	skipnz
  1058     0640  0AF9               	incf	___awmod@divisor+1,f
  1059     0641                     l832:
  1060     0641  0878               	movf	___awmod@divisor,w
  1061     0642  0479               	iorwf	___awmod@divisor+1,w
  1062     0643  1903               	btfsc	3,2
  1063     0644  2E46               	goto	u411
  1064     0645  2E47               	goto	u410
  1065     0646                     u411:
  1066     0646  2E76               	goto	l850
  1067     0647                     u410:
  1068     0647                     l834:
  1069     0647  01FC               	clrf	___awmod@counter
  1070     0648  0AFC               	incf	___awmod@counter,f
  1071     0649  2E55               	goto	l840
  1072     064A                     l836:
  1073     064A  3001               	movlw	1
  1074     064B                     u425:
  1075     064B  1003               	clrc
  1076     064C  0DF8               	rlf	___awmod@divisor,f
  1077     064D  0DF9               	rlf	___awmod@divisor+1,f
  1078     064E  3EFF               	addlw	-1
  1079     064F  1D03               	skipz
  1080     0650  2E4B               	goto	u425
  1081     0651                     l838:
  1082     0651  3001               	movlw	1
  1083     0652  00FF               	movwf	btemp+1
  1084     0653  087F               	movf	btemp+1,w
  1085     0654  07FC               	addwf	___awmod@counter,f
  1086     0655                     l840:
  1087     0655  1FF9               	btfss	___awmod@divisor+1,7
  1088     0656  2E58               	goto	u431
  1089     0657  2E59               	goto	u430
  1090     0658                     u431:
  1091     0658  2E4A               	goto	l836
  1092     0659                     u430:
  1093     0659                     l842:
  1094     0659  0879               	movf	___awmod@divisor+1,w
  1095     065A  027B               	subwf	___awmod@dividend+1,w
  1096     065B  1D03               	skipz
  1097     065C  2E5F               	goto	u445
  1098     065D  0878               	movf	___awmod@divisor,w
  1099     065E  027A               	subwf	___awmod@dividend,w
  1100     065F                     u445:
  1101     065F  1C03               	skipc
  1102     0660  2E62               	goto	u441
  1103     0661  2E63               	goto	u440
  1104     0662                     u441:
  1105     0662  2E69               	goto	l846
  1106     0663                     u440:
  1107     0663                     l844:
  1108     0663  0878               	movf	___awmod@divisor,w
  1109     0664  02FA               	subwf	___awmod@dividend,f
  1110     0665  0879               	movf	___awmod@divisor+1,w
  1111     0666  1C03               	skipc
  1112     0667  03FB               	decf	___awmod@dividend+1,f
  1113     0668  02FB               	subwf	___awmod@dividend+1,f
  1114     0669                     l846:
  1115     0669  3001               	movlw	1
  1116     066A                     u455:
  1117     066A  1003               	clrc
  1118     066B  0CF9               	rrf	___awmod@divisor+1,f
  1119     066C  0CF8               	rrf	___awmod@divisor,f
  1120     066D  3EFF               	addlw	-1
  1121     066E  1D03               	skipz
  1122     066F  2E6A               	goto	u455
  1123     0670                     l848:
  1124     0670  3001               	movlw	1
  1125     0671  02FC               	subwf	___awmod@counter,f
  1126     0672  1D03               	btfss	3,2
  1127     0673  2E75               	goto	u461
  1128     0674  2E76               	goto	u460
  1129     0675                     u461:
  1130     0675  2E59               	goto	l842
  1131     0676                     u460:
  1132     0676                     l850:
  1133     0676  087D               	movf	___awmod@sign,w
  1134     0677  1903               	btfsc	3,2
  1135     0678  2E7A               	goto	u471
  1136     0679  2E7B               	goto	u470
  1137     067A                     u471:
  1138     067A  2E80               	goto	l854
  1139     067B                     u470:
  1140     067B                     l852:
  1141     067B  09FA               	comf	___awmod@dividend,f
  1142     067C  09FB               	comf	___awmod@dividend+1,f
  1143     067D  0AFA               	incf	___awmod@dividend,f
  1144     067E  1903               	skipnz
  1145     067F  0AFB               	incf	___awmod@dividend+1,f
  1146     0680                     l854:
  1147     0680  087B               	movf	___awmod@dividend+1,w
  1148     0681  00F9               	movwf	?___awmod+1
  1149     0682  087A               	movf	___awmod@dividend,w
  1150     0683  00F8               	movwf	?___awmod
  1151     0684                     l308:
  1152     0684  0008               	return
  1153     0685                     __end_of___awmod:
  1154                           
  1155                           	psect	text5
  1156     0685                     __ptext5:	
  1157 ;; *************** function ___awdiv *****************
  1158 ;; Defined at:
  1159 ;;		line 5 in file "C:\Program Files\Microchip\xc8\v2.46\pic\sources\c99\common\awdiv.c"
  1160 ;; Parameters:    Size  Location     Type
  1161 ;;  divisor         2    0[COMMON] int 
  1162 ;;  dividend        2    2[COMMON] int 
  1163 ;; Auto vars:     Size  Location     Type
  1164 ;;  quotient        2    6[COMMON] int 
  1165 ;;  sign            1    5[COMMON] unsigned char 
  1166 ;;  counter         1    4[COMMON] unsigned char 
  1167 ;; Return value:  Size  Location     Type
  1168 ;;                  2    0[COMMON] int 
  1169 ;; Registers used:
  1170 ;;		wreg, status,2, status,0, btemp+1
  1171 ;; Tracked objects:
  1172 ;;		On entry : 0/0
  1173 ;;		On exit  : 0/0
  1174 ;;		Unchanged: 0/0
  1175 ;; Data sizes:     COMMON   BANK0   BANK1   BANK3   BANK2
  1176 ;;      Params:         4       0       0       0       0
  1177 ;;      Locals:         4       0       0       0       0
  1178 ;;      Temps:          0       0       0       0       0
  1179 ;;      Totals:         8       0       0       0       0
  1180 ;;Total ram usage:        8 bytes
  1181 ;; Hardware stack levels used: 1
  1182 ;; This function calls:
  1183 ;;		Nothing
  1184 ;; This function is called by:
  1185 ;;		_Team1_Display
  1186 ;;		_Team2_Display
  1187 ;; This function uses a non-reentrant model
  1188 ;;
  1189                           
  1190     0685                     ___awdiv:	
  1191                           ;psect for function ___awdiv
  1192                           
  1193     0685                     l776:	
  1194                           ;incstack = 0
  1195                           ; Regs used in ___awdiv: [wreg+status,2+status,0+btemp+1]
  1196                           
  1197     0685  01F5               	clrf	___awdiv@sign
  1198     0686                     l778:
  1199     0686  1FF1               	btfss	___awdiv@divisor+1,7
  1200     0687  2E89               	goto	u291
  1201     0688  2E8A               	goto	u290
  1202     0689                     u291:
  1203     0689  2E91               	goto	l784
  1204     068A                     u290:
  1205     068A                     l780:
  1206     068A  09F0               	comf	___awdiv@divisor,f
  1207     068B  09F1               	comf	___awdiv@divisor+1,f
  1208     068C  0AF0               	incf	___awdiv@divisor,f
  1209     068D  1903               	skipnz
  1210     068E  0AF1               	incf	___awdiv@divisor+1,f
  1211     068F                     l782:
  1212     068F  01F5               	clrf	___awdiv@sign
  1213     0690  0AF5               	incf	___awdiv@sign,f
  1214     0691                     l784:
  1215     0691  1FF3               	btfss	___awdiv@dividend+1,7
  1216     0692  2E94               	goto	u301
  1217     0693  2E95               	goto	u300
  1218     0694                     u301:
  1219     0694  2E9E               	goto	l790
  1220     0695                     u300:
  1221     0695                     l786:
  1222     0695  09F2               	comf	___awdiv@dividend,f
  1223     0696  09F3               	comf	___awdiv@dividend+1,f
  1224     0697  0AF2               	incf	___awdiv@dividend,f
  1225     0698  1903               	skipnz
  1226     0699  0AF3               	incf	___awdiv@dividend+1,f
  1227     069A                     l788:
  1228     069A  3001               	movlw	1
  1229     069B  00FF               	movwf	btemp+1
  1230     069C  087F               	movf	btemp+1,w
  1231     069D  06F5               	xorwf	___awdiv@sign,f
  1232     069E                     l790:
  1233     069E  01F6               	clrf	___awdiv@quotient
  1234     069F  01F7               	clrf	___awdiv@quotient+1
  1235     06A0                     l792:
  1236     06A0  0870               	movf	___awdiv@divisor,w
  1237     06A1  0471               	iorwf	___awdiv@divisor+1,w
  1238     06A2  1903               	btfsc	3,2
  1239     06A3  2EA5               	goto	u311
  1240     06A4  2EA6               	goto	u310
  1241     06A5                     u311:
  1242     06A5  2EDD               	goto	l812
  1243     06A6                     u310:
  1244     06A6                     l794:
  1245     06A6  01F4               	clrf	___awdiv@counter
  1246     06A7  0AF4               	incf	___awdiv@counter,f
  1247     06A8  2EB4               	goto	l800
  1248     06A9                     l796:
  1249     06A9  3001               	movlw	1
  1250     06AA                     u325:
  1251     06AA  1003               	clrc
  1252     06AB  0DF0               	rlf	___awdiv@divisor,f
  1253     06AC  0DF1               	rlf	___awdiv@divisor+1,f
  1254     06AD  3EFF               	addlw	-1
  1255     06AE  1D03               	skipz
  1256     06AF  2EAA               	goto	u325
  1257     06B0                     l798:
  1258     06B0  3001               	movlw	1
  1259     06B1  00FF               	movwf	btemp+1
  1260     06B2  087F               	movf	btemp+1,w
  1261     06B3  07F4               	addwf	___awdiv@counter,f
  1262     06B4                     l800:
  1263     06B4  1FF1               	btfss	___awdiv@divisor+1,7
  1264     06B5  2EB7               	goto	u331
  1265     06B6  2EB8               	goto	u330
  1266     06B7                     u331:
  1267     06B7  2EA9               	goto	l796
  1268     06B8                     u330:
  1269     06B8                     l802:
  1270     06B8  3001               	movlw	1
  1271     06B9                     u345:
  1272     06B9  1003               	clrc
  1273     06BA  0DF6               	rlf	___awdiv@quotient,f
  1274     06BB  0DF7               	rlf	___awdiv@quotient+1,f
  1275     06BC  3EFF               	addlw	-1
  1276     06BD  1D03               	skipz
  1277     06BE  2EB9               	goto	u345
  1278     06BF  0871               	movf	___awdiv@divisor+1,w
  1279     06C0  0273               	subwf	___awdiv@dividend+1,w
  1280     06C1  1D03               	skipz
  1281     06C2  2EC5               	goto	u355
  1282     06C3  0870               	movf	___awdiv@divisor,w
  1283     06C4  0272               	subwf	___awdiv@dividend,w
  1284     06C5                     u355:
  1285     06C5  1C03               	skipc
  1286     06C6  2EC8               	goto	u351
  1287     06C7  2EC9               	goto	u350
  1288     06C8                     u351:
  1289     06C8  2ED0               	goto	l808
  1290     06C9                     u350:
  1291     06C9                     l804:
  1292     06C9  0870               	movf	___awdiv@divisor,w
  1293     06CA  02F2               	subwf	___awdiv@dividend,f
  1294     06CB  0871               	movf	___awdiv@divisor+1,w
  1295     06CC  1C03               	skipc
  1296     06CD  03F3               	decf	___awdiv@dividend+1,f
  1297     06CE  02F3               	subwf	___awdiv@dividend+1,f
  1298     06CF                     l806:
  1299     06CF  1476               	bsf	___awdiv@quotient,0
  1300     06D0                     l808:
  1301     06D0  3001               	movlw	1
  1302     06D1                     u365:
  1303     06D1  1003               	clrc
  1304     06D2  0CF1               	rrf	___awdiv@divisor+1,f
  1305     06D3  0CF0               	rrf	___awdiv@divisor,f
  1306     06D4  3EFF               	addlw	-1
  1307     06D5  1D03               	skipz
  1308     06D6  2ED1               	goto	u365
  1309     06D7                     l810:
  1310     06D7  3001               	movlw	1
  1311     06D8  02F4               	subwf	___awdiv@counter,f
  1312     06D9  1D03               	btfss	3,2
  1313     06DA  2EDC               	goto	u371
  1314     06DB  2EDD               	goto	u370
  1315     06DC                     u371:
  1316     06DC  2EB8               	goto	l802
  1317     06DD                     u370:
  1318     06DD                     l812:
  1319     06DD  0875               	movf	___awdiv@sign,w
  1320     06DE  1903               	btfsc	3,2
  1321     06DF  2EE1               	goto	u381
  1322     06E0  2EE2               	goto	u380
  1323     06E1                     u381:
  1324     06E1  2EE7               	goto	l816
  1325     06E2                     u380:
  1326     06E2                     l814:
  1327     06E2  09F6               	comf	___awdiv@quotient,f
  1328     06E3  09F7               	comf	___awdiv@quotient+1,f
  1329     06E4  0AF6               	incf	___awdiv@quotient,f
  1330     06E5  1903               	skipnz
  1331     06E6  0AF7               	incf	___awdiv@quotient+1,f
  1332     06E7                     l816:
  1333     06E7  0877               	movf	___awdiv@quotient+1,w
  1334     06E8  00F1               	movwf	?___awdiv+1
  1335     06E9  0876               	movf	___awdiv@quotient,w
  1336     06EA  00F0               	movwf	?___awdiv
  1337     06EB                     l295:
  1338     06EB  0008               	return
  1339     06EC                     __end_of___awdiv:
  1340     007E                     btemp	set	126	;btemp
  1341     007E                     wtemp0	set	126

Data Sizes:
    Strings     0
    Constant    0
    Data        0
    BSS         0
    Persistent  0
    Stack       0

Auto Spaces:
    Space          Size  Autos    Used
    COMMON           14     14      14
    BANK0            80      6       6
    BANK1            80      0       0
    BANK3            96      0       0
    BANK2            96      0       0

Pointer List with Targets:

    None.

Critical Paths under _main in COMMON

    _Team2_Display->___awmod
    _Team1_Display->___awmod
    ___awmod->___awdiv

Critical Paths under _main in BANK0

    _main->_initial_condition
    _initial_condition->_Team1_Display
    _initial_condition->_Team2_Display

Critical Paths under _main in BANK1

    None.

Critical Paths under _main in BANK3

    None.

Critical Paths under _main in BANK2

    None.

Call Graph Tables:

 ---------------------------------------------------------------------------------
 (Depth) Function   	        Calls       Base Space   Used Autos Params    Refs
 ---------------------------------------------------------------------------------
 (0) _main                                                 2     2      0    8802
                                              4 BANK0      2     2      0
                      _Team1_Display
                      _Team2_Display
                  _initial_condition
 ---------------------------------------------------------------------------------
 (1) _initial_condition                                    1     1      0    4388
                                              3 BANK0      1     1      0
                      _Team1_Display
                      _Team2_Display
 ---------------------------------------------------------------------------------
 (2) _Team2_Display                                        3     3      0    2182
                                              0 BANK0      3     3      0
                            ___awdiv
                            ___awmod
 ---------------------------------------------------------------------------------
 (2) _Team1_Display                                        3     3      0    2182
                                              0 BANK0      3     3      0
                            ___awdiv
                            ___awmod
 ---------------------------------------------------------------------------------
 (3) ___awmod                                              6     2      4    1208
                                              8 COMMON     6     2      4
                            ___awdiv (ARG)
 ---------------------------------------------------------------------------------
 (3) ___awdiv                                              8     4      4     908
                                              0 COMMON     8     4      4
 ---------------------------------------------------------------------------------
 Estimated maximum stack depth 3
 ---------------------------------------------------------------------------------

 Call Graph Graphs:

 _main (ROOT)
   _Team1_Display
     ___awdiv
     ___awmod
       ___awdiv (ARG)
   _Team2_Display
     ___awdiv
     ___awmod
   _initial_condition
     _Team1_Display
     _Team2_Display

 Address spaces:
Name               Size   Autos  Total    Cost      Usage
BITCOMMON            E      0       0       0        0.0%
EEDATA             100      0       0       0        0.0%
NULL                 0      0       0       0        0.0%
CODE                 0      0       0       0        0.0%
COMMON               E      E       E       1      100.0%
BITSFR0              0      0       0       1        0.0%
SFR0                 0      0       0       1        0.0%
BITSFR1              0      0       0       2        0.0%
SFR1                 0      0       0       2        0.0%
STACK                0      0       0       2        0.0%
ABS                  0      0       0       3        0.0%
BITBANK0            50      0       0       4        0.0%
BITSFR3              0      0       0       4        0.0%
SFR3                 0      0       0       4        0.0%
BANK0               50      6       6       5        7.5%
BITSFR2              0      0       0       5        0.0%
SFR2                 0      0       0       5        0.0%
BITBANK1            50      0       0       6        0.0%
BANK1               50      0       0       7        0.0%
BITBANK3            60      0       0       8        0.0%
BANK3               60      0       0       9        0.0%
BITBANK2            60      0       0      10        0.0%
BANK2               60      0       0      11        0.0%
DATA                 0      0       0      12        0.0%


Microchip Technology PIC Macro Assembler V2.46 build 20240104201356 
Symbol Table                                                                                   Wed Apr 17 17:12:43 2024

                       l23 0773                         l32 05D7                         l26 07FB  
                       l42 0602                         l51 0616                         l43 05FE  
                       l46 060E                         l38 05F6                         l47 060A  
                       l39 05F2               ___awdiv@sign 0075                        l308 0684  
                      l295 06EB                        l800 06B4                        l810 06D7  
                      l802 06B8                        l804 06C9                        l812 06DD  
                      l820 062C                        l900 07BD                        l814 06E2  
                      l806 06CF                        l830 063C                        l822 062D  
                      l910 07EF                        l902 07BE                        l816 06E7  
                      l808 06D0                        l840 0655                        l832 0641  
                      l824 0631                        l912 07F0                        l904 07CA  
                      l920 05C6                        l842 0659                        l834 0647  
                      l850 0676                        l826 0636                        l906 07ED  
                      l922 05CB                        l914 05B1                        l930 05DD  
                      l780 068A                        l852 067B                        l844 0663  
                      l836 064A                        l828 0638                        l860 0703  
                      l908 07EE                        l916 05B6                        l940 05E8  
                      l932 05DE                        l790 069E                        l782 068F  
                      l854 0680                        l846 0669                        l838 0651  
                      l870 0734                        l862 0704                        l918 05C2  
                      l950 061A                        l942 05EE                        l934 05DF  
                      l926 05D8                        l792 06A0                        l784 0691  
                      l776 0685                        l848 0670                        l880 0766  
                      l872 0735                        l864 0705                        l944 05FA  
                      l936 05E4                        l928 05DC                        l794 06A6  
                      l786 0695                        l778 0686                        l882 0767  
                      l874 0736                        l866 0706                        l858 06EF  
                      l890 078C                        l946 0606                        l938 05E7  
                      l796 06A9                        l788 069A                        l884 0768  
                      l876 0742                        l868 0711                        l892 078D  
                      l948 0612                        l798 06B0                        l878 0765  
                      l894 078E                        l886 0777                        l896 0799  
                      l888 078B                        l898 07BC                        u300 0695  
                      u301 0694                        u310 06A6                        u311 06A5  
                      u400 063C                        u401 063B                        u330 06B8  
                      u410 0647                        u331 06B7                        u411 0646  
                      u500 05F6                        u325 06AA                        u501 05F5  
                      u350 06C9                        u430 0659                        u510 05FA  
                      u351 06C8                        u431 0658                        u511 05F9  
                      u440 0663                        u520 0602                        u345 06B9  
                      u441 0662                        u425 064B                        u521 0601  
                      u370 06DD                        u290 068A                        u530 0606  
                      u371 06DC                        u355 06C5                        u291 0689  
                      u531 0605                        u380 06E2                        u460 0676  
                      u540 060E                        u381 06E1                        u365 06D1  
                      u461 0675                        u445 065F                        u541 060D  
                      u470 067B                        u390 0631                        u550 0612  
                      u471 067A                        u455 066A                        u391 0630  
                      u607 070C                        u551 0611                        u480 05CB  
                      u560 061A                        u617 073D                        u481 05CA  
                      u561 0619                        u490 05EE                        u627 076E  
                      u491 05ED                        u577 0794                        u587 07C5  
                      u597 07F6               ___awmod@sign 007D                       _main 05D8  
                     btemp 007E                       start 0000                      ?_main 0070  
          __end_of___awdiv 06EC            __end_of___awmod 0685            ___awdiv@divisor 0070  
          ___awdiv@counter 0074                      _PORTC 0007                      _PORTD 0008  
                    _TRISB 0086                      _TRISC 0087                      _TRISD 0088  
                    status 0003                      wtemp0 007E              _Team1_Display 06EC  
          __initialization 07FC              _Team2_Display 0774               __end_of_main 062C  
                   ??_main 007E           ___awdiv@dividend 0072             ?_Team1_Display 0070  
           ?_Team2_Display 0070                  ??___awdiv 0074                  ??___awmod 007C  
         ___awdiv@quotient 0076            ___awmod@divisor 0078            ___awmod@counter 007C  
        _initial_condition 05B1         ?_initial_condition 0070    __end_of__initialization 07FC  
      ??_initial_condition 007E       initial_condition@num 0023           Team1_Display@num 0022  
           __pcstackCOMMON 0070  __end_of_initial_condition 05D8             _OPTION_REGbits 0081  
          ??_Team1_Display 0020            ??_Team2_Display 0020           Team2_Display@num 0022  
               __pmaintext 05D8                    ___awdiv 0685                    ___awmod 062C  
                  __ptext1 05B1                    __ptext2 0774                    __ptext3 06EC  
                  __ptext4 062C                    __ptext5 0685           ___awmod@dividend 007A  
     end_of_initialization 07FC                  _PORTBbits 0006                  _PORTCbits 0007  
                _PORTDbits 0008        start_initialization 07FC                  ___latbits 0002  
            __pcstackBANK0 0020      __end_of_Team1_Display 0774      __end_of_Team2_Display 07FC  
                 ?___awdiv 0070                   ?___awmod 0078                  main@team1 0024  
                main@team2 0025  
